---
triple:          'arm64-apple-darwin'
binary-path:     '/Users/dhruvasharma/Documents/Projects/LearnCpp/dsa/LC20'
relocations:
  - { offsetInCU: 0x53CB, offset: 0x53CB, size: 0x8, addend: 0x0, symName: __ZNSt3__1neB8ue170006ERKNS_16__deque_iteratorIcPcRcPS1_lLl4096EEES6_, symObjAddr: 0x9F0, symBinAddr: 0x100003614, symSize: 0x34 }
  - { offsetInCU: 0x5408, offset: 0x5408, size: 0x8, addend: 0x0, symName: __ZNSt3__1eqB8ue170006ERKNS_16__deque_iteratorIcPcRcPS1_lLl4096EEES6_, symObjAddr: 0xD40, symBinAddr: 0x100003964, symSize: 0x30 }
  - { offsetInCU: 0x5445, offset: 0x5445, size: 0x8, addend: 0x0, symName: __ZNSt3__112__to_addressB8ue170006IcEEPT_S2_, symObjAddr: 0x13D0, symBinAddr: 0x100003FF4, symSize: 0x14 }
  - { offsetInCU: 0x547A, offset: 0x547A, size: 0x8, addend: 0x0, symName: __ZNSt3__119__libcpp_deallocateB8ue170006EPvmm, symObjAddr: 0x153C, symBinAddr: 0x100004160, symSize: 0x30 }
  - { offsetInCU: 0x54C2, offset: 0x54C2, size: 0x8, addend: 0x0, symName: __ZNSt3__127__do_deallocate_handle_sizeB8ue170006IJEEEvPvmDpT_, symObjAddr: 0x156C, symBinAddr: 0x100004190, symSize: 0x28 }
  - { offsetInCU: 0x5500, offset: 0x5500, size: 0x8, addend: 0x0, symName: __ZNSt3__124__libcpp_operator_deleteB8ue170006IJPvEEEvDpT_, symObjAddr: 0x1594, symBinAddr: 0x1000041B8, symSize: 0x24 }
  - { offsetInCU: 0x5535, offset: 0x5535, size: 0x8, addend: 0x0, symName: __ZNSt3__112__to_addressB8ue170006IPcEEPT_S3_, symObjAddr: 0x1818, symBinAddr: 0x10000443C, symSize: 0x14 }
  - { offsetInCU: 0x559D, offset: 0x559D, size: 0x8, addend: 0x0, symName: __ZNSt3__13maxB8ue170006ImEERKT_S3_S3_, symObjAddr: 0x2AB4, symBinAddr: 0x1000056D8, symSize: 0x2C }
  - { offsetInCU: 0x5A39, offset: 0x5A39, size: 0x8, addend: 0x0, symName: __ZNSt3__14swapB8ue170006IPPcEENS_9enable_ifIXaasr21is_move_constructibleIT_EE5valuesr18is_move_assignableIS4_EE5valueEvE4typeERS4_S7_, symObjAddr: 0x30C4, symBinAddr: 0x100005CE8, symSize: 0x3C }
  - { offsetInCU: 0x5A8A, offset: 0x5A8A, size: 0x8, addend: 0x0, symName: __ZNSt3__14moveB8ue170006IPPcS2_EET0_T_S4_S3_, symObjAddr: 0x31A8, symBinAddr: 0x100005DCC, symSize: 0x40 }
  - { offsetInCU: 0x5B00, offset: 0x5B00, size: 0x8, addend: 0x0, symName: __ZNSt3__16__moveB8ue170006INS_17_ClassicAlgPolicyEPPcS3_S3_EENS_4pairIT0_T2_EES5_T1_S6_, symObjAddr: 0x32B0, symBinAddr: 0x100005ED4, symSize: 0x44 }
  - { offsetInCU: 0x5B6C, offset: 0x5B6C, size: 0x8, addend: 0x0, symName: __ZNSt3__123__dispatch_copy_or_moveB8ue170006INS_17_ClassicAlgPolicyENS_11__move_loopIS1_EENS_14__move_trivialEPPcS6_S6_EENS_4pairIT2_T4_EES8_T3_S9_, symObjAddr: 0x32F4, symBinAddr: 0x100005F18, symSize: 0x44 }
  - { offsetInCU: 0x5BEA, offset: 0x5BEA, size: 0x8, addend: 0x0, symName: __ZNSt3__121__unwrap_and_dispatchB8ue170006INS_10__overloadINS_11__move_loopINS_17_ClassicAlgPolicyEEENS_14__move_trivialEEEPPcS8_S8_Li0EEENS_4pairIT0_T2_EESA_T1_SB_, symObjAddr: 0x3338, symBinAddr: 0x100005F5C, symSize: 0xB4 }
  - { offsetInCU: 0x5C78, offset: 0x5C78, size: 0x8, addend: 0x0, symName: __ZNSt3__114__unwrap_rangeB8ue170006IPPcS2_EENS_4pairIT0_S4_EET_S6_, symObjAddr: 0x33EC, symBinAddr: 0x100006010, symSize: 0x60 }
  - { offsetInCU: 0x5E3C, offset: 0x5E3C, size: 0x8, addend: 0x0, symName: __ZNSt3__113__unwrap_iterB8ue170006IPPcNS_18__unwrap_iter_implIS2_Lb1EEELi0EEEDTclsrT0_8__unwrapclsr3stdE7declvalIT_EEEES6_, symObjAddr: 0x3494, symBinAddr: 0x1000060B8, symSize: 0x24 }
  - { offsetInCU: 0x5E80, offset: 0x5E80, size: 0x8, addend: 0x0, symName: __ZNSt3__19make_pairB8ue170006IPPcS2_EENS_4pairINS_18__unwrap_ref_decayIT_E4typeENS4_IT0_E4typeEEEOS5_OS8_, symObjAddr: 0x34B8, symBinAddr: 0x1000060DC, symSize: 0x38 }
  - { offsetInCU: 0x5ECF, offset: 0x5ECF, size: 0x8, addend: 0x0, symName: __ZNSt3__114__rewrap_rangeB8ue170006IPPcS2_EET_S3_T0_, symObjAddr: 0x34F0, symBinAddr: 0x100006114, symSize: 0x2C }
  - { offsetInCU: 0x5F1B, offset: 0x5F1B, size: 0x8, addend: 0x0, symName: __ZNSt3__113__rewrap_iterB8ue170006IPPcS2_NS_18__unwrap_iter_implIS2_Lb1EEEEET_S5_T0_, symObjAddr: 0x351C, symBinAddr: 0x100006140, symSize: 0x3C }
  - { offsetInCU: 0x5F70, offset: 0x5F70, size: 0x8, addend: 0x0, symName: __ZNSt3__119__copy_trivial_implB8ue170006IPcS1_EENS_4pairIPT_PT0_EES4_S4_S6_, symObjAddr: 0x3558, symBinAddr: 0x10000617C, symSize: 0x80 }
  - { offsetInCU: 0x5FD8, offset: 0x5FD8, size: 0x8, addend: 0x0, symName: __ZNSt3__119__constexpr_memmoveB8ue170006IPcS1_Li0EEEPT_S3_PT0_NS_15__element_countE, symObjAddr: 0x35D8, symBinAddr: 0x1000061FC, symSize: 0x64 }
  - { offsetInCU: 0x6046, offset: 0x6046, size: 0x8, addend: 0x0, symName: __ZNSt3__19make_pairB8ue170006IRPPcS2_EENS_4pairINS_18__unwrap_ref_decayIT_E4typeENS5_IT0_E4typeEEEOS6_OS9_, symObjAddr: 0x363C, symBinAddr: 0x100006260, symSize: 0x38 }
  - { offsetInCU: 0x60E8, offset: 0x60E8, size: 0x8, addend: 0x0, symName: __ZNSt3__18distanceB8ue170006INS_13move_iteratorIPPcEEEENS_15iterator_traitsIT_E15difference_typeES6_S6_, symObjAddr: 0x38A4, symBinAddr: 0x1000064C8, symSize: 0x3C }
  - { offsetInCU: 0x612B, offset: 0x612B, size: 0x8, addend: 0x0, symName: __ZNSt3__110__distanceB8ue170006INS_13move_iteratorIPPcEEEENS_15iterator_traitsIT_E15difference_typeES6_S6_NS_26random_access_iterator_tagE, symObjAddr: 0x3AA8, symBinAddr: 0x1000066CC, symSize: 0x30 }
  - { offsetInCU: 0x6178, offset: 0x6178, size: 0x8, addend: 0x0, symName: __ZNSt3__1miB8ue170006IPPcS2_EEDTmicldtfp_4baseEcldtfp0_4baseEERKNS_13move_iteratorIT_EERKNS4_IT0_EE, symObjAddr: 0x3AD8, symBinAddr: 0x1000066FC, symSize: 0x48 }
  - { offsetInCU: 0x61C7, offset: 0x61C7, size: 0x8, addend: 0x0, symName: __ZNSt3__117__libcpp_allocateB8ue170006Emm, symObjAddr: 0x3C30, symBinAddr: 0x100006854, symSize: 0x28 }
  - { offsetInCU: 0x6204, offset: 0x6204, size: 0x8, addend: 0x0, symName: __ZNSt3__121__libcpp_operator_newB8ue170006IJmEEEPvDpT_, symObjAddr: 0x3C6C, symBinAddr: 0x100006890, symSize: 0x24 }
  - { offsetInCU: 0x623D, offset: 0x623D, size: 0x8, addend: 0x0, symName: __ZNSt3__113move_backwardB8ue170006IPPcS2_EET0_T_S4_S3_, symObjAddr: 0x3C90, symBinAddr: 0x1000068B4, symSize: 0x40 }
  - { offsetInCU: 0x6297, offset: 0x6297, size: 0x8, addend: 0x0, symName: __ZNSt3__115__move_backwardB8ue170006INS_17_ClassicAlgPolicyEPPcS3_S3_EENS_4pairIT0_T2_EES5_T1_S6_, symObjAddr: 0x3CD0, symBinAddr: 0x1000068F4, symSize: 0x44 }
  - { offsetInCU: 0x6303, offset: 0x6303, size: 0x8, addend: 0x0, symName: __ZNSt3__123__dispatch_copy_or_moveB8ue170006INS_17_ClassicAlgPolicyENS_20__move_backward_loopIS1_EENS_23__move_backward_trivialEPPcS6_S6_EENS_4pairIT2_T4_EES8_T3_S9_, symObjAddr: 0x3D14, symBinAddr: 0x100006938, symSize: 0x44 }
  - { offsetInCU: 0x6381, offset: 0x6381, size: 0x8, addend: 0x0, symName: __ZNSt3__121__unwrap_and_dispatchB8ue170006INS_10__overloadINS_20__move_backward_loopINS_17_ClassicAlgPolicyEEENS_23__move_backward_trivialEEEPPcS8_S8_Li0EEENS_4pairIT0_T2_EESA_T1_SB_, symObjAddr: 0x3D58, symBinAddr: 0x10000697C, symSize: 0xB4 }
  - { offsetInCU: 0x6455, offset: 0x6455, size: 0x8, addend: 0x0, symName: __ZNSt3__128__copy_backward_trivial_implB8ue170006IPcS1_EENS_4pairIPT_PT0_EES4_S4_S6_, symObjAddr: 0x3E54, symBinAddr: 0x100006A78, symSize: 0x90 }
  - { offsetInCU: 0x64BD, offset: 0x64BD, size: 0x8, addend: 0x0, symName: __ZNSt3__19make_pairB8ue170006IRPPcS3_EENS_4pairINS_18__unwrap_ref_decayIT_E4typeENS5_IT0_E4typeEEEOS6_OS9_, symObjAddr: 0x3EE4, symBinAddr: 0x100006B08, symSize: 0x38 }
  - { offsetInCU: 0x650C, offset: 0x650C, size: 0x8, addend: 0x0, symName: __ZNSt3__13maxB8ue170006ImNS_6__lessIvvEEEERKT_S5_S5_T0_, symObjAddr: 0x3F8C, symBinAddr: 0x100006BB0, symSize: 0x54 }
  - { offsetInCU: 0x65AB, offset: 0x65AB, size: 0x8, addend: 0x0, symName: __ZNSt3__119__allocate_at_leastB8ue170006INS_9allocatorIPcEEEENS_19__allocation_resultINS_16allocator_traitsIT_E7pointerEEERS6_m, symObjAddr: 0x4124, symBinAddr: 0x100006D48, symSize: 0x40 }
  - { offsetInCU: 0x65EE, offset: 0x65EE, size: 0x8, addend: 0x0, symName: __ZNSt3__118__constexpr_strlenB8ue170006EPKc, symObjAddr: 0x4D68, symBinAddr: 0x10000798C, symSize: 0x24 }
  - { offsetInCU: 0x67CC, offset: 0x67CC, size: 0x8, addend: 0x0, symName: __ZSt28__throw_bad_array_new_lengthB8ue170006v, symObjAddr: 0x3BFC, symBinAddr: 0x100006820, symSize: 0x34 }
  - { offsetInCU: 0x8D15, offset: 0x8D15, size: 0x8, addend: 0x0, symName: __Z7isValidNSt3__112basic_stringIcNS_11char_traitsIcEENS_9allocatorIcEEEE, symObjAddr: 0x0, symBinAddr: 0x100002C24, symSize: 0x1F0 }
  - { offsetInCU: 0x8DC2, offset: 0x8DC2, size: 0x8, addend: 0x0, symName: __ZNSt3__15stackIcNS_5dequeIcNS_9allocatorIcEEEEEC1B8ue170006Ev, symObjAddr: 0x1F0, symBinAddr: 0x100002E14, symSize: 0x2C }
  - { offsetInCU: 0x8DEA, offset: 0x8DEA, size: 0x8, addend: 0x0, symName: __ZNSt3__15stackIcNS_5dequeIcNS_9allocatorIcEEEEE4pushB8ue170006EOc, symObjAddr: 0x21C, symBinAddr: 0x100002E40, symSize: 0x2C }
  - { offsetInCU: 0x8F16, offset: 0x8F16, size: 0x8, addend: 0x0, symName: __ZNSt3__112basic_stringIcNS_11char_traitsIcEENS_9allocatorIcEEEixB8ue170006Em, symObjAddr: 0x248, symBinAddr: 0x100002E6C, symSize: 0x30 }
  - { offsetInCU: 0x8F49, offset: 0x8F49, size: 0x8, addend: 0x0, symName: __ZNKSt3__112basic_stringIcNS_11char_traitsIcEENS_9allocatorIcEEE6lengthB8ue170006Ev, symObjAddr: 0x278, symBinAddr: 0x100002E9C, symSize: 0x24 }
  - { offsetInCU: 0x8F6D, offset: 0x8F6D, size: 0x8, addend: 0x0, symName: __ZNKSt3__15stackIcNS_5dequeIcNS_9allocatorIcEEEEE5emptyB8ue170006Ev, symObjAddr: 0x29C, symBinAddr: 0x100002EC0, symSize: 0x28 }
  - { offsetInCU: 0x8F91, offset: 0x8F91, size: 0x8, addend: 0x0, symName: __ZNSt3__15stackIcNS_5dequeIcNS_9allocatorIcEEEEE4pushB8ue170006ERKc, symObjAddr: 0x2C4, symBinAddr: 0x100002EE8, symSize: 0x2C }
  - { offsetInCU: 0x8FC4, offset: 0x8FC4, size: 0x8, addend: 0x0, symName: __ZNSt3__15stackIcNS_5dequeIcNS_9allocatorIcEEEEE3topB8ue170006Ev, symObjAddr: 0x2F0, symBinAddr: 0x100002F14, symSize: 0x24 }
  - { offsetInCU: 0x8FE8, offset: 0x8FE8, size: 0x8, addend: 0x0, symName: __ZNSt3__15stackIcNS_5dequeIcNS_9allocatorIcEEEEE3popB8ue170006Ev, symObjAddr: 0x314, symBinAddr: 0x100002F38, symSize: 0x24 }
  - { offsetInCU: 0x900C, offset: 0x900C, size: 0x8, addend: 0x0, symName: __ZNSt3__15stackIcNS_5dequeIcNS_9allocatorIcEEEEED1Ev, symObjAddr: 0x338, symBinAddr: 0x100002F5C, symSize: 0x2C }
  - { offsetInCU: 0x9036, offset: 0x9036, size: 0x8, addend: 0x0, symName: _main, symObjAddr: 0x364, symBinAddr: 0x100002F88, symSize: 0xB4 }
  - { offsetInCU: 0x9063, offset: 0x9063, size: 0x8, addend: 0x0, symName: __ZNSt3__112basic_stringIcNS_11char_traitsIcEENS_9allocatorIcEEEC1B8ue170006ILi0EEEPKc, symObjAddr: 0x418, symBinAddr: 0x10000303C, symSize: 0x34 }
  - { offsetInCU: 0x90A0, offset: 0x90A0, size: 0x8, addend: 0x0, symName: __ZNSt3__15stackIcNS_5dequeIcNS_9allocatorIcEEEEED2Ev, symObjAddr: 0x44C, symBinAddr: 0x100003070, symSize: 0x2C }
  - { offsetInCU: 0x90CA, offset: 0x90CA, size: 0x8, addend: 0x0, symName: __ZNSt3__15dequeIcNS_9allocatorIcEEED1B8ue170006Ev, symObjAddr: 0x478, symBinAddr: 0x10000309C, symSize: 0x2C }
  - { offsetInCU: 0x90F2, offset: 0x90F2, size: 0x8, addend: 0x0, symName: __ZNSt3__15dequeIcNS_9allocatorIcEEED2B8ue170006Ev, symObjAddr: 0x4A4, symBinAddr: 0x1000030C8, symSize: 0xA4 }
  - { offsetInCU: 0x9146, offset: 0x9146, size: 0x8, addend: 0x0, symName: __ZNSt3__15dequeIcNS_9allocatorIcEEE5clearEv, symObjAddr: 0x548, symBinAddr: 0x10000316C, symSize: 0x194 }
  - { offsetInCU: 0x919F, offset: 0x919F, size: 0x8, addend: 0x0, symName: __ZNKSt3__15dequeIcNS_9allocatorIcEEE17__annotate_deleteB8ue170006Ev, symObjAddr: 0x6DC, symBinAddr: 0x100003300, symSize: 0xE8 }
  - { offsetInCU: 0x91E0, offset: 0x91E0, size: 0x8, addend: 0x0, symName: __ZNSt3__114__split_bufferIPcNS_9allocatorIS1_EEE5beginB8ue170006Ev, symObjAddr: 0x7C4, symBinAddr: 0x1000033E8, symSize: 0x18 }
  - { offsetInCU: 0x9204, offset: 0x9204, size: 0x8, addend: 0x0, symName: __ZNSt3__114__split_bufferIPcNS_9allocatorIS1_EEE3endB8ue170006Ev, symObjAddr: 0x7DC, symBinAddr: 0x100003400, symSize: 0x18 }
  - { offsetInCU: 0x9228, offset: 0x9228, size: 0x8, addend: 0x0, symName: __ZNSt3__116allocator_traitsINS_9allocatorIcEEE10deallocateB8ue170006ERS2_Pcm, symObjAddr: 0x7F4, symBinAddr: 0x100003418, symSize: 0x34 }
  - { offsetInCU: 0x9269, offset: 0x9269, size: 0x8, addend: 0x0, symName: __ZNSt3__15dequeIcNS_9allocatorIcEEE7__allocB8ue170006Ev, symObjAddr: 0x828, symBinAddr: 0x10000344C, symSize: 0x28 }
  - { offsetInCU: 0x928D, offset: 0x928D, size: 0x8, addend: 0x0, symName: __ZNSt3__114__split_bufferIPcNS_9allocatorIS1_EEED1Ev, symObjAddr: 0x850, symBinAddr: 0x100003474, symSize: 0x2C }
  - { offsetInCU: 0x92B7, offset: 0x92B7, size: 0x8, addend: 0x0, symName: __ZNSt3__15dequeIcNS_9allocatorIcEEE5beginB8ue170006Ev, symObjAddr: 0x87C, symBinAddr: 0x1000034A0, symSize: 0xB8 }
  - { offsetInCU: 0x92EA, offset: 0x92EA, size: 0x8, addend: 0x0, symName: __ZNSt3__15dequeIcNS_9allocatorIcEEE3endB8ue170006Ev, symObjAddr: 0x934, symBinAddr: 0x100003558, symSize: 0xBC }
  - { offsetInCU: 0x932C, offset: 0x932C, size: 0x8, addend: 0x0, symName: __ZNSt3__116allocator_traitsINS_9allocatorIcEEE7destroyB8ue170006IcvEEvRS2_PT_, symObjAddr: 0xA30, symBinAddr: 0x100003654, symSize: 0x2C }
  - { offsetInCU: 0x9368, offset: 0x9368, size: 0x8, addend: 0x0, symName: __ZNKSt3__116__deque_iteratorIcPcRcPS1_lLl4096EEdeB8ue170006Ev, symObjAddr: 0xA5C, symBinAddr: 0x100003680, symSize: 0x18 }
  - { offsetInCU: 0x938C, offset: 0x938C, size: 0x8, addend: 0x0, symName: __ZNSt3__116__deque_iteratorIcPcRcPS1_lLl4096EEppB8ue170006Ev, symObjAddr: 0xA74, symBinAddr: 0x100003698, symSize: 0x68 }
  - { offsetInCU: 0x93B0, offset: 0x93B0, size: 0x8, addend: 0x0, symName: __ZNSt3__15dequeIcNS_9allocatorIcEEE6__sizeB8ue170006Ev, symObjAddr: 0xADC, symBinAddr: 0x100003700, symSize: 0x28 }
  - { offsetInCU: 0x93D4, offset: 0x93D4, size: 0x8, addend: 0x0, symName: __ZNKSt3__114__split_bufferIPcNS_9allocatorIS1_EEE4sizeB8ue170006Ev, symObjAddr: 0xB04, symBinAddr: 0x100003728, symSize: 0x28 }
  - { offsetInCU: 0x93F8, offset: 0x93F8, size: 0x8, addend: 0x0, symName: __ZNSt3__114__split_bufferIPcNS_9allocatorIS1_EEE5frontB8ue170006Ev, symObjAddr: 0xB2C, symBinAddr: 0x100003750, symSize: 0x18 }
  - { offsetInCU: 0x941C, offset: 0x941C, size: 0x8, addend: 0x0, symName: __ZNSt3__114__split_bufferIPcNS_9allocatorIS1_EEE9pop_frontB8ue170006Ev, symObjAddr: 0xB44, symBinAddr: 0x100003768, symSize: 0x2C }
  - { offsetInCU: 0x9440, offset: 0x9440, size: 0x8, addend: 0x0, symName: __ZNKSt3__15dequeIcNS_9allocatorIcEEE14__annotate_newB8ue170006Em, symObjAddr: 0xB70, symBinAddr: 0x100003794, symSize: 0xB8 }
  - { offsetInCU: 0x9473, offset: 0x9473, size: 0x8, addend: 0x0, symName: __ZNKSt3__114__split_bufferIPcNS_9allocatorIS1_EEE5emptyB8ue170006Ev, symObjAddr: 0xC28, symBinAddr: 0x10000384C, symSize: 0x28 }
  - { offsetInCU: 0x9497, offset: 0x9497, size: 0x8, addend: 0x0, symName: __ZNSt3__116__deque_iteratorIcPcRcPS1_lLl4096EEC1B8ue170006ES3_S1_, symObjAddr: 0xC50, symBinAddr: 0x100003874, symSize: 0x3C }
  - { offsetInCU: 0x94DD, offset: 0x94DD, size: 0x8, addend: 0x0, symName: __ZNSt3__116__deque_iteratorIcPcRcPS1_lLl4096EEC2B8ue170006ES3_S1_, symObjAddr: 0xC8C, symBinAddr: 0x1000038B0, symSize: 0x2C }
  - { offsetInCU: 0x9523, offset: 0x9523, size: 0x8, addend: 0x0, symName: __ZNKSt3__15dequeIcNS_9allocatorIcEEE4sizeB8ue170006Ev, symObjAddr: 0xCB8, symBinAddr: 0x1000038DC, symSize: 0x28 }
  - { offsetInCU: 0x9547, offset: 0x9547, size: 0x8, addend: 0x0, symName: __ZNKSt3__15dequeIcNS_9allocatorIcEEE6__sizeB8ue170006Ev, symObjAddr: 0xCE0, symBinAddr: 0x100003904, symSize: 0x28 }
  - { offsetInCU: 0x956B, offset: 0x956B, size: 0x8, addend: 0x0, symName: __ZNKSt3__117__compressed_pairImNS_9allocatorIcEEE5firstB8ue170006Ev, symObjAddr: 0xD08, symBinAddr: 0x10000392C, symSize: 0x24 }
  - { offsetInCU: 0x958F, offset: 0x958F, size: 0x8, addend: 0x0, symName: __ZNKSt3__122__compressed_pair_elemImLi0ELb0EE5__getB8ue170006Ev, symObjAddr: 0xD2C, symBinAddr: 0x100003950, symSize: 0x14 }
  - { offsetInCU: 0x95B3, offset: 0x95B3, size: 0x8, addend: 0x0, symName: __ZNSt3__19allocatorIcE7destroyB8ue170006EPc, symObjAddr: 0xD70, symBinAddr: 0x100003994, symSize: 0x14 }
  - { offsetInCU: 0x95E5, offset: 0x95E5, size: 0x8, addend: 0x0, symName: __ZNSt3__117__compressed_pairImNS_9allocatorIcEEE5firstB8ue170006Ev, symObjAddr: 0xD84, symBinAddr: 0x1000039A8, symSize: 0x24 }
  - { offsetInCU: 0x9609, offset: 0x9609, size: 0x8, addend: 0x0, symName: __ZNSt3__122__compressed_pair_elemImLi0ELb0EE5__getB8ue170006Ev, symObjAddr: 0xDA8, symBinAddr: 0x1000039CC, symSize: 0x14 }
  - { offsetInCU: 0x962D, offset: 0x962D, size: 0x8, addend: 0x0, symName: __ZNSt3__114__split_bufferIPcNS_9allocatorIS1_EEE19__destruct_at_beginB8ue170006EPS1_, symObjAddr: 0xDBC, symBinAddr: 0x1000039E0, symSize: 0x2C }
  - { offsetInCU: 0x965F, offset: 0x965F, size: 0x8, addend: 0x0, symName: __ZNSt3__114__split_bufferIPcNS_9allocatorIS1_EEE19__destruct_at_beginEPS1_NS_17integral_constantIbLb1EEE, symObjAddr: 0xDE8, symBinAddr: 0x100003A0C, symSize: 0x20 }
  - { offsetInCU: 0x969D, offset: 0x969D, size: 0x8, addend: 0x0, symName: __ZNKSt3__15dequeIcNS_9allocatorIcEEE18__annotate_from_toB8ue170006EmmNS3_22__asan_annotation_typeENS3_23__asan_annotation_placeE, symObjAddr: 0xE08, symBinAddr: 0x100003A2C, symSize: 0x580 }
  - { offsetInCU: 0x9857, offset: 0x9857, size: 0x8, addend: 0x0, symName: __ZNKSt3__114__split_bufferIPcNS_9allocatorIS1_EEE5beginB8ue170006Ev, symObjAddr: 0x1388, symBinAddr: 0x100003FAC, symSize: 0x18 }
  - { offsetInCU: 0x987B, offset: 0x987B, size: 0x8, addend: 0x0, symName: __ZNKSt3__15dequeIcNS_9allocatorIcEEE5emptyB8ue170006Ev, symObjAddr: 0x13A0, symBinAddr: 0x100003FC4, symSize: 0x30 }
  - { offsetInCU: 0x989F, offset: 0x989F, size: 0x8, addend: 0x0, symName: __ZNKSt3__15dequeIcNS_9allocatorIcEEE44__annotate_double_ended_contiguous_containerB8ue170006EPKvS5_S5_S5_S5_S5_, symObjAddr: 0x13E4, symBinAddr: 0x100004008, symSize: 0x28 }
  - { offsetInCU: 0x9905, offset: 0x9905, size: 0x8, addend: 0x0, symName: __ZNKSt3__15dequeIcNS_9allocatorIcEEE22__annotate_whole_blockB8ue170006EmNS3_22__asan_annotation_typeE, symObjAddr: 0x140C, symBinAddr: 0x100004030, symSize: 0xAC }
  - { offsetInCU: 0x9974, offset: 0x9974, size: 0x8, addend: 0x0, symName: __ZNKSt3__15dequeIcNS_9allocatorIcEEE23__annotate_poison_blockB8ue170006EPKvS5_, symObjAddr: 0x14B8, symBinAddr: 0x1000040DC, symSize: 0x44 }
  - { offsetInCU: 0x99B6, offset: 0x99B6, size: 0x8, addend: 0x0, symName: __ZNSt3__19allocatorIcE10deallocateB8ue170006EPcm, symObjAddr: 0x14FC, symBinAddr: 0x100004120, symSize: 0x40 }
  - { offsetInCU: 0x99F6, offset: 0x99F6, size: 0x8, addend: 0x0, symName: __ZNSt3__117__compressed_pairImNS_9allocatorIcEEE6secondB8ue170006Ev, symObjAddr: 0x15B8, symBinAddr: 0x1000041DC, symSize: 0x24 }
  - { offsetInCU: 0x9A1A, offset: 0x9A1A, size: 0x8, addend: 0x0, symName: __ZNSt3__122__compressed_pair_elemINS_9allocatorIcEELi1ELb1EE5__getB8ue170006Ev, symObjAddr: 0x15DC, symBinAddr: 0x100004200, symSize: 0x14 }
  - { offsetInCU: 0x9A3E, offset: 0x9A3E, size: 0x8, addend: 0x0, symName: __ZNSt3__114__split_bufferIPcNS_9allocatorIS1_EEED2Ev, symObjAddr: 0x15F0, symBinAddr: 0x100004214, symSize: 0x8C }
  - { offsetInCU: 0x9A68, offset: 0x9A68, size: 0x8, addend: 0x0, symName: __ZNSt3__114__split_bufferIPcNS_9allocatorIS1_EEE5clearB8ue170006Ev, symObjAddr: 0x167C, symBinAddr: 0x1000042A0, symSize: 0x28 }
  - { offsetInCU: 0x9A8C, offset: 0x9A8C, size: 0x8, addend: 0x0, symName: __ZNSt3__116allocator_traitsINS_9allocatorIPcEEE10deallocateB8ue170006ERS3_PS2_m, symObjAddr: 0x16A4, symBinAddr: 0x1000042C8, symSize: 0x34 }
  - { offsetInCU: 0x9ACD, offset: 0x9ACD, size: 0x8, addend: 0x0, symName: __ZNSt3__114__split_bufferIPcNS_9allocatorIS1_EEE7__allocB8ue170006Ev, symObjAddr: 0x16D8, symBinAddr: 0x1000042FC, symSize: 0x28 }
  - { offsetInCU: 0x9AF1, offset: 0x9AF1, size: 0x8, addend: 0x0, symName: __ZNKSt3__114__split_bufferIPcNS_9allocatorIS1_EEE8capacityB8ue170006Ev, symObjAddr: 0x1700, symBinAddr: 0x100004324, symSize: 0x40 }
  - { offsetInCU: 0x9B15, offset: 0x9B15, size: 0x8, addend: 0x0, symName: __ZNSt3__114__split_bufferIPcNS_9allocatorIS1_EEE17__destruct_at_endB8ue170006EPS1_, symObjAddr: 0x1740, symBinAddr: 0x100004364, symSize: 0x2C }
  - { offsetInCU: 0x9B47, offset: 0x9B47, size: 0x8, addend: 0x0, symName: __ZNSt3__114__split_bufferIPcNS_9allocatorIS1_EEE17__destruct_at_endB8ue170006EPS1_NS_17integral_constantIbLb0EEE, symObjAddr: 0x176C, symBinAddr: 0x100004390, symSize: 0x80 }
  - { offsetInCU: 0x9B85, offset: 0x9B85, size: 0x8, addend: 0x0, symName: __ZNSt3__116allocator_traitsINS_9allocatorIPcEEE7destroyB8ue170006IS2_vEEvRS3_PT_, symObjAddr: 0x17EC, symBinAddr: 0x100004410, symSize: 0x2C }
  - { offsetInCU: 0x9BC1, offset: 0x9BC1, size: 0x8, addend: 0x0, symName: __ZNSt3__19allocatorIPcE7destroyB8ue170006EPS1_, symObjAddr: 0x182C, symBinAddr: 0x100004450, symSize: 0x14 }
  - { offsetInCU: 0x9BF3, offset: 0x9BF3, size: 0x8, addend: 0x0, symName: __ZNSt3__19allocatorIPcE10deallocateB8ue170006EPS1_m, symObjAddr: 0x1840, symBinAddr: 0x100004464, symSize: 0x40 }
  - { offsetInCU: 0x9C33, offset: 0x9C33, size: 0x8, addend: 0x0, symName: __ZNSt3__117__compressed_pairIPPcNS_9allocatorIS1_EEE6secondB8ue170006Ev, symObjAddr: 0x1880, symBinAddr: 0x1000044A4, symSize: 0x24 }
  - { offsetInCU: 0x9C57, offset: 0x9C57, size: 0x8, addend: 0x0, symName: __ZNSt3__122__compressed_pair_elemINS_9allocatorIPcEELi1ELb1EE5__getB8ue170006Ev, symObjAddr: 0x18A4, symBinAddr: 0x1000044C8, symSize: 0x14 }
  - { offsetInCU: 0x9C7B, offset: 0x9C7B, size: 0x8, addend: 0x0, symName: __ZNKSt3__114__split_bufferIPcNS_9allocatorIS1_EEE9__end_capB8ue170006Ev, symObjAddr: 0x18B8, symBinAddr: 0x1000044DC, symSize: 0x28 }
  - { offsetInCU: 0x9C9F, offset: 0x9C9F, size: 0x8, addend: 0x0, symName: __ZNKSt3__117__compressed_pairIPPcNS_9allocatorIS1_EEE5firstB8ue170006Ev, symObjAddr: 0x18E0, symBinAddr: 0x100004504, symSize: 0x24 }
  - { offsetInCU: 0x9CC3, offset: 0x9CC3, size: 0x8, addend: 0x0, symName: __ZNKSt3__122__compressed_pair_elemIPPcLi0ELb0EE5__getB8ue170006Ev, symObjAddr: 0x1904, symBinAddr: 0x100004528, symSize: 0x14 }
  - { offsetInCU: 0x9CE7, offset: 0x9CE7, size: 0x8, addend: 0x0, symName: __ZNSt3__15stackIcNS_5dequeIcNS_9allocatorIcEEEEEC2B8ue170006Ev, symObjAddr: 0x1918, symBinAddr: 0x10000453C, symSize: 0x2C }
  - { offsetInCU: 0x9D0F, offset: 0x9D0F, size: 0x8, addend: 0x0, symName: __ZNSt3__15dequeIcNS_9allocatorIcEEEC1B8ue170006Ev, symObjAddr: 0x1944, symBinAddr: 0x100004568, symSize: 0x2C }
  - { offsetInCU: 0x9D37, offset: 0x9D37, size: 0x8, addend: 0x0, symName: __ZNSt3__15dequeIcNS_9allocatorIcEEEC2B8ue170006Ev, symObjAddr: 0x1970, symBinAddr: 0x100004594, symSize: 0x5C }
  - { offsetInCU: 0x9D5F, offset: 0x9D5F, size: 0x8, addend: 0x0, symName: __ZNSt3__114__split_bufferIPcNS_9allocatorIS1_EEEC1B8ue170006Ev, symObjAddr: 0x19CC, symBinAddr: 0x1000045F0, symSize: 0x2C }
  - { offsetInCU: 0x9D91, offset: 0x9D91, size: 0x8, addend: 0x0, symName: __ZNSt3__117__compressed_pairImNS_9allocatorIcEEEC1B8ue170006IiNS_18__default_init_tagEEEOT_OT0_, symObjAddr: 0x19F8, symBinAddr: 0x10000461C, symSize: 0x3C }
  - { offsetInCU: 0x9DE7, offset: 0x9DE7, size: 0x8, addend: 0x0, symName: __ZNSt3__114__split_bufferIPcNS_9allocatorIS1_EEEC2B8ue170006Ev, symObjAddr: 0x1A34, symBinAddr: 0x100004658, symSize: 0x50 }
  - { offsetInCU: 0x9E14, offset: 0x9E14, size: 0x8, addend: 0x0, symName: __ZNSt3__117__compressed_pairIPPcNS_9allocatorIS1_EEEC1B8ue170006IDnNS_18__default_init_tagEEEOT_OT0_, symObjAddr: 0x1A84, symBinAddr: 0x1000046A8, symSize: 0x3C }
  - { offsetInCU: 0x9E6A, offset: 0x9E6A, size: 0x8, addend: 0x0, symName: __ZNSt3__117__compressed_pairIPPcNS_9allocatorIS1_EEEC2B8ue170006IDnNS_18__default_init_tagEEEOT_OT0_, symObjAddr: 0x1AC0, symBinAddr: 0x1000046E4, symSize: 0x40 }
  - { offsetInCU: 0x9EC0, offset: 0x9EC0, size: 0x8, addend: 0x0, symName: __ZNSt3__122__compressed_pair_elemIPPcLi0ELb0EEC2B8ue170006IDnvEEOT_, symObjAddr: 0x1B00, symBinAddr: 0x100004724, symSize: 0x1C }
  - { offsetInCU: 0x9F00, offset: 0x9F00, size: 0x8, addend: 0x0, symName: __ZNSt3__122__compressed_pair_elemINS_9allocatorIPcEELi1ELb1EEC2B8ue170006ENS_18__default_init_tagE, symObjAddr: 0x1B1C, symBinAddr: 0x100004740, symSize: 0x2C }
  - { offsetInCU: 0x9F32, offset: 0x9F32, size: 0x8, addend: 0x0, symName: __ZNSt3__19allocatorIPcEC2B8ue170006Ev, symObjAddr: 0x1B48, symBinAddr: 0x10000476C, symSize: 0x2C }
  - { offsetInCU: 0x9F5A, offset: 0x9F5A, size: 0x8, addend: 0x0, symName: __ZNSt3__116__non_trivial_ifILb1ENS_9allocatorIPcEEEC2B8ue170006Ev, symObjAddr: 0x1B74, symBinAddr: 0x100004798, symSize: 0x14 }
  - { offsetInCU: 0x9F82, offset: 0x9F82, size: 0x8, addend: 0x0, symName: __ZNSt3__117__compressed_pairImNS_9allocatorIcEEEC2B8ue170006IiNS_18__default_init_tagEEEOT_OT0_, symObjAddr: 0x1B88, symBinAddr: 0x1000047AC, symSize: 0x40 }
  - { offsetInCU: 0x9FD8, offset: 0x9FD8, size: 0x8, addend: 0x0, symName: __ZNSt3__122__compressed_pair_elemImLi0ELb0EEC2B8ue170006IivEEOT_, symObjAddr: 0x1BC8, symBinAddr: 0x1000047EC, symSize: 0x24 }
  - { offsetInCU: 0xA018, offset: 0xA018, size: 0x8, addend: 0x0, symName: __ZNSt3__122__compressed_pair_elemINS_9allocatorIcEELi1ELb1EEC2B8ue170006ENS_18__default_init_tagE, symObjAddr: 0x1BEC, symBinAddr: 0x100004810, symSize: 0x2C }
  - { offsetInCU: 0xA04A, offset: 0xA04A, size: 0x8, addend: 0x0, symName: __ZNSt3__19allocatorIcEC2B8ue170006Ev, symObjAddr: 0x1C18, symBinAddr: 0x10000483C, symSize: 0x2C }
  - { offsetInCU: 0xA072, offset: 0xA072, size: 0x8, addend: 0x0, symName: __ZNSt3__116__non_trivial_ifILb1ENS_9allocatorIcEEEC2B8ue170006Ev, symObjAddr: 0x1C44, symBinAddr: 0x100004868, symSize: 0x14 }
  - { offsetInCU: 0xA09A, offset: 0xA09A, size: 0x8, addend: 0x0, symName: __ZNSt3__112basic_stringIcNS_11char_traitsIcEENS_9allocatorIcEEE13__get_pointerB8ue170006Ev, symObjAddr: 0x1C58, symBinAddr: 0x10000487C, symSize: 0x54 }
  - { offsetInCU: 0xA0BE, offset: 0xA0BE, size: 0x8, addend: 0x0, symName: __ZNKSt3__112basic_stringIcNS_11char_traitsIcEENS_9allocatorIcEEE9__is_longB8ue170006Ev, symObjAddr: 0x1CAC, symBinAddr: 0x1000048D0, symSize: 0x38 }
  - { offsetInCU: 0xA0E2, offset: 0xA0E2, size: 0x8, addend: 0x0, symName: __ZNSt3__112basic_stringIcNS_11char_traitsIcEENS_9allocatorIcEEE18__get_long_pointerB8ue170006Ev, symObjAddr: 0x1CE4, symBinAddr: 0x100004908, symSize: 0x28 }
  - { offsetInCU: 0xA106, offset: 0xA106, size: 0x8, addend: 0x0, symName: __ZNSt3__112basic_stringIcNS_11char_traitsIcEENS_9allocatorIcEEE19__get_short_pointerB8ue170006Ev, symObjAddr: 0x1D0C, symBinAddr: 0x100004930, symSize: 0x28 }
  - { offsetInCU: 0xA12A, offset: 0xA12A, size: 0x8, addend: 0x0, symName: __ZNKSt3__117__compressed_pairINS_12basic_stringIcNS_11char_traitsIcEENS_9allocatorIcEEE5__repES5_E5firstB8ue170006Ev, symObjAddr: 0x1D34, symBinAddr: 0x100004958, symSize: 0x24 }
  - { offsetInCU: 0xA14E, offset: 0xA14E, size: 0x8, addend: 0x0, symName: __ZNKSt3__122__compressed_pair_elemINS_12basic_stringIcNS_11char_traitsIcEENS_9allocatorIcEEE5__repELi0ELb0EE5__getB8ue170006Ev, symObjAddr: 0x1D58, symBinAddr: 0x10000497C, symSize: 0x14 }
  - { offsetInCU: 0xA172, offset: 0xA172, size: 0x8, addend: 0x0, symName: __ZNSt3__117__compressed_pairINS_12basic_stringIcNS_11char_traitsIcEENS_9allocatorIcEEE5__repES5_E5firstB8ue170006Ev, symObjAddr: 0x1D6C, symBinAddr: 0x100004990, symSize: 0x24 }
  - { offsetInCU: 0xA196, offset: 0xA196, size: 0x8, addend: 0x0, symName: __ZNSt3__122__compressed_pair_elemINS_12basic_stringIcNS_11char_traitsIcEENS_9allocatorIcEEE5__repELi0ELb0EE5__getB8ue170006Ev, symObjAddr: 0x1D90, symBinAddr: 0x1000049B4, symSize: 0x14 }
  - { offsetInCU: 0xA1BA, offset: 0xA1BA, size: 0x8, addend: 0x0, symName: __ZNSt3__114pointer_traitsIPcE10pointer_toB8ue170006ERc, symObjAddr: 0x1DA4, symBinAddr: 0x1000049C8, symSize: 0x14 }
  - { offsetInCU: 0xA1DC, offset: 0xA1DC, size: 0x8, addend: 0x0, symName: __ZNSt3__15dequeIcNS_9allocatorIcEEE9push_backEOc, symObjAddr: 0x1DB8, symBinAddr: 0x1000049DC, symSize: 0xAC }
  - { offsetInCU: 0xA220, offset: 0xA220, size: 0x8, addend: 0x0, symName: __ZNKSt3__15dequeIcNS_9allocatorIcEEE12__back_spareB8ue170006Ev, symObjAddr: 0x1E64, symBinAddr: 0x100004A88, symSize: 0x54 }
  - { offsetInCU: 0xA244, offset: 0xA244, size: 0x8, addend: 0x0, symName: __ZNSt3__15dequeIcNS_9allocatorIcEEE19__add_back_capacityEv, symObjAddr: 0x1EB8, symBinAddr: 0x100004ADC, symSize: 0x34C }
  - { offsetInCU: 0xA2F7, offset: 0xA2F7, size: 0x8, addend: 0x0, symName: __ZNKSt3__15dequeIcNS_9allocatorIcEEE24__annotate_increase_backB8ue170006Em, symObjAddr: 0x2204, symBinAddr: 0x100004E28, symSize: 0x7C }
  - { offsetInCU: 0xA32F, offset: 0xA32F, size: 0x8, addend: 0x0, symName: __ZNSt3__116allocator_traitsINS_9allocatorIcEEE9constructB8ue170006IcJcEvEEvRS2_PT_DpOT0_, symObjAddr: 0x2280, symBinAddr: 0x100004EA4, symSize: 0x34 }
  - { offsetInCU: 0xA385, offset: 0xA385, size: 0x8, addend: 0x0, symName: __ZNKSt3__15dequeIcNS_9allocatorIcEEE10__capacityB8ue170006Ev, symObjAddr: 0x22B4, symBinAddr: 0x100004ED8, symSize: 0x60 }
  - { offsetInCU: 0xA3A9, offset: 0xA3A9, size: 0x8, addend: 0x0, symName: __ZNKSt3__15dequeIcNS_9allocatorIcEEE13__front_spareB8ue170006Ev, symObjAddr: 0x2314, symBinAddr: 0x100004F38, symSize: 0x18 }
  - { offsetInCU: 0xA3CD, offset: 0xA3CD, size: 0x8, addend: 0x0, symName: __ZNSt3__114__split_bufferIPcNS_9allocatorIS1_EEE9push_backB8ue170006ERKS1_, symObjAddr: 0x232C, symBinAddr: 0x100004F50, symSize: 0x260 }
  - { offsetInCU: 0xA443, offset: 0xA443, size: 0x8, addend: 0x0, symName: __ZNKSt3__114__split_bufferIPcNS_9allocatorIS1_EEE12__back_spareB8ue170006Ev, symObjAddr: 0x258C, symBinAddr: 0x1000051B0, symSize: 0x40 }
  - { offsetInCU: 0xA467, offset: 0xA467, size: 0x8, addend: 0x0, symName: __ZNSt3__114__split_bufferIPcNS_9allocatorIS1_EEE9push_backEOS1_, symObjAddr: 0x25CC, symBinAddr: 0x1000051F0, symSize: 0x260 }
  - { offsetInCU: 0xA4DD, offset: 0xA4DD, size: 0x8, addend: 0x0, symName: __ZNSt3__116allocator_traitsINS_9allocatorIcEEE8allocateB8ue170006ERS2_m, symObjAddr: 0x282C, symBinAddr: 0x100005450, symSize: 0x2C }
  - { offsetInCU: 0xA50F, offset: 0xA50F, size: 0x8, addend: 0x0, symName: __ZNSt3__114__split_bufferIPcNS_9allocatorIS1_EEE10push_frontEOS1_, symObjAddr: 0x2858, symBinAddr: 0x10000547C, symSize: 0x25C }
  - { offsetInCU: 0xA585, offset: 0xA585, size: 0x8, addend: 0x0, symName: __ZNSt3__114__split_bufferIPcRNS_9allocatorIS1_EEEC1EmmS4_, symObjAddr: 0x2AE0, symBinAddr: 0x100005704, symSize: 0x44 }
  - { offsetInCU: 0xA5DE, offset: 0xA5DE, size: 0x8, addend: 0x0, symName: __ZNSt3__122__allocator_destructorINS_9allocatorIcEEEC1B8ue170006ERS2_m, symObjAddr: 0x2B24, symBinAddr: 0x100005748, symSize: 0x3C }
  - { offsetInCU: 0xA69F, offset: 0xA69F, size: 0x8, addend: 0x0, symName: __ZNSt3__110unique_ptrIPcNS_22__allocator_destructorINS_9allocatorIcEEEEEC1B8ue170006ILb1EvEES1_NS_16__dependent_typeINS_27__unique_ptr_deleter_sfinaeIS5_EEXT_EE20__good_rval_ref_typeE, symObjAddr: 0x2B60, symBinAddr: 0x100005784, symSize: 0x3C }
  - { offsetInCU: 0xA6EE, offset: 0xA6EE, size: 0x8, addend: 0x0, symName: __ZNSt3__114__split_bufferIPcRNS_9allocatorIS1_EEE9push_backEOS1_, symObjAddr: 0x2B9C, symBinAddr: 0x1000057C0, symSize: 0x260 }
  - { offsetInCU: 0xA764, offset: 0xA764, size: 0x8, addend: 0x0, symName: __ZNKSt3__110unique_ptrIPcNS_22__allocator_destructorINS_9allocatorIcEEEEE3getB8ue170006Ev, symObjAddr: 0x2DFC, symBinAddr: 0x100005A20, symSize: 0x28 }
  - { offsetInCU: 0xA788, offset: 0xA788, size: 0x8, addend: 0x0, symName: __ZNSt3__110unique_ptrIPcNS_22__allocator_destructorINS_9allocatorIcEEEEE7releaseB8ue170006Ev, symObjAddr: 0x2E24, symBinAddr: 0x100005A48, symSize: 0x44 }
  - { offsetInCU: 0xA7BB, offset: 0xA7BB, size: 0x8, addend: 0x0, symName: __ZNSt3__114__split_bufferIPcRNS_9allocatorIS1_EEE10push_frontERKS1_, symObjAddr: 0x2E68, symBinAddr: 0x100005A8C, symSize: 0x25C }
  - { offsetInCU: 0xA831, offset: 0xA831, size: 0x8, addend: 0x0, symName: __ZNSt3__114__split_bufferIPcNS_9allocatorIS1_EEE9__end_capB8ue170006Ev, symObjAddr: 0x3100, symBinAddr: 0x100005D24, symSize: 0x28 }
  - { offsetInCU: 0xA855, offset: 0xA855, size: 0x8, addend: 0x0, symName: __ZNSt3__114__split_bufferIPcRNS_9allocatorIS1_EEE9__end_capB8ue170006Ev, symObjAddr: 0x3128, symBinAddr: 0x100005D4C, symSize: 0x28 }
  - { offsetInCU: 0xA879, offset: 0xA879, size: 0x8, addend: 0x0, symName: __ZNSt3__110unique_ptrIPcNS_22__allocator_destructorINS_9allocatorIcEEEEED1B8ue170006Ev, symObjAddr: 0x3150, symBinAddr: 0x100005D74, symSize: 0x2C }
  - { offsetInCU: 0xA8A1, offset: 0xA8A1, size: 0x8, addend: 0x0, symName: __ZNSt3__114__split_bufferIPcRNS_9allocatorIS1_EEED1Ev, symObjAddr: 0x317C, symBinAddr: 0x100005DA0, symSize: 0x2C }
  - { offsetInCU: 0xA8CB, offset: 0xA8CB, size: 0x8, addend: 0x0, symName: __ZNSt3__114__split_bufferIPcRNS_9allocatorIS1_EEE18__construct_at_endINS_13move_iteratorIPS1_EEEENS_9enable_ifIXsr31__has_forward_iterator_categoryIT_EE5valueEvE4typeESB_SB_, symObjAddr: 0x31E8, symBinAddr: 0x100005E0C, symSize: 0x60 }
  - { offsetInCU: 0xA916, offset: 0xA916, size: 0x8, addend: 0x0, symName: __ZNSt3__113move_iteratorIPPcEC1B8ue170006ES2_, symObjAddr: 0x3248, symBinAddr: 0x100005E6C, symSize: 0x34 }
  - { offsetInCU: 0xA94C, offset: 0xA94C, size: 0x8, addend: 0x0, symName: __ZNSt3__116allocator_traitsINS_9allocatorIPcEEE9constructB8ue170006IS2_JRKS2_EvEEvRS3_PT_DpOT0_, symObjAddr: 0x327C, symBinAddr: 0x100005EA0, symSize: 0x34 }
  - { offsetInCU: 0xA9C5, offset: 0xA9C5, size: 0x8, addend: 0x0, symName: __ZNKSt3__114__move_trivialclB8ue170006IPcS2_Li0EEENS_4pairIPT_PT0_EES5_S5_S7_, symObjAddr: 0x344C, symBinAddr: 0x100006070, symSize: 0x48 }
  - { offsetInCU: 0xAA30, offset: 0xAA30, size: 0x8, addend: 0x0, symName: __ZNSt3__14pairIPPcS2_EC1B8ue170006IRS2_S2_LPv0EEEOT_OT0_, symObjAddr: 0x3674, symBinAddr: 0x100006298, symSize: 0x3C }
  - { offsetInCU: 0xAA8C, offset: 0xAA8C, size: 0x8, addend: 0x0, symName: __ZNSt3__14pairIPPcS2_EC2B8ue170006IRS2_S2_LPv0EEEOT_OT0_, symObjAddr: 0x36B0, symBinAddr: 0x1000062D4, symSize: 0x34 }
  - { offsetInCU: 0xAAE8, offset: 0xAAE8, size: 0x8, addend: 0x0, symName: __ZNSt3__118__unwrap_iter_implIPPcLb1EE8__unwrapB8ue170006ES2_, symObjAddr: 0x36E4, symBinAddr: 0x100006308, symSize: 0x24 }
  - { offsetInCU: 0xAB0A, offset: 0xAB0A, size: 0x8, addend: 0x0, symName: __ZNSt3__14pairIPPcS2_EC1B8ue170006IS2_S2_LPv0EEEOT_OT0_, symObjAddr: 0x3708, symBinAddr: 0x10000632C, symSize: 0x3C }
  - { offsetInCU: 0xAB66, offset: 0xAB66, size: 0x8, addend: 0x0, symName: __ZNSt3__14pairIPPcS2_EC2B8ue170006IS2_S2_LPv0EEEOT_OT0_, symObjAddr: 0x3744, symBinAddr: 0x100006368, symSize: 0x34 }
  - { offsetInCU: 0xABC2, offset: 0xABC2, size: 0x8, addend: 0x0, symName: __ZNSt3__118__unwrap_iter_implIPPcLb1EE8__rewrapB8ue170006ES2_S2_, symObjAddr: 0x3778, symBinAddr: 0x10000639C, symSize: 0x50 }
  - { offsetInCU: 0xABF2, offset: 0xABF2, size: 0x8, addend: 0x0, symName: __ZNSt3__114__split_bufferIPcRNS_9allocatorIS1_EEE28__construct_at_end_with_sizeINS_13move_iteratorIPS1_EEEEvT_m, symObjAddr: 0x37C8, symBinAddr: 0x1000063EC, symSize: 0xDC }
  - { offsetInCU: 0xAC56, offset: 0xAC56, size: 0x8, addend: 0x0, symName: __ZNSt3__114__split_bufferIPcRNS_9allocatorIS1_EEE21_ConstructTransactionC1B8ue170006EPPS1_m, symObjAddr: 0x38E0, symBinAddr: 0x100006504, symSize: 0x3C }
  - { offsetInCU: 0xAC9A, offset: 0xAC9A, size: 0x8, addend: 0x0, symName: __ZNSt3__116allocator_traitsINS_9allocatorIPcEEE9constructB8ue170006IS2_JS2_EvEEvRS3_PT_DpOT0_, symObjAddr: 0x391C, symBinAddr: 0x100006540, symSize: 0x34 }
  - { offsetInCU: 0xACF0, offset: 0xACF0, size: 0x8, addend: 0x0, symName: __ZNSt3__114__split_bufferIPcRNS_9allocatorIS1_EEE7__allocB8ue170006Ev, symObjAddr: 0x3950, symBinAddr: 0x100006574, symSize: 0x28 }
  - { offsetInCU: 0xAD14, offset: 0xAD14, size: 0x8, addend: 0x0, symName: __ZNKSt3__113move_iteratorIPPcEdeB8ue170006Ev, symObjAddr: 0x3978, symBinAddr: 0x10000659C, symSize: 0x18 }
  - { offsetInCU: 0xAD38, offset: 0xAD38, size: 0x8, addend: 0x0, symName: __ZNSt3__113move_iteratorIPPcEppB8ue170006Ev, symObjAddr: 0x3990, symBinAddr: 0x1000065B4, symSize: 0x20 }
  - { offsetInCU: 0xAD5C, offset: 0xAD5C, size: 0x8, addend: 0x0, symName: __ZNSt3__114__split_bufferIPcRNS_9allocatorIS1_EEE21_ConstructTransactionD1B8ue170006Ev, symObjAddr: 0x39B0, symBinAddr: 0x1000065D4, symSize: 0x2C }
  - { offsetInCU: 0xAD84, offset: 0xAD84, size: 0x8, addend: 0x0, symName: __ZNSt3__114__split_bufferIPcRNS_9allocatorIS1_EEE21_ConstructTransactionC2B8ue170006EPPS1_m, symObjAddr: 0x39DC, symBinAddr: 0x100006600, symSize: 0x44 }
  - { offsetInCU: 0xADC8, offset: 0xADC8, size: 0x8, addend: 0x0, symName: __ZNSt3__19allocatorIPcE9constructB8ue170006IS1_JS1_EEEvPT_DpOT0_, symObjAddr: 0x3A20, symBinAddr: 0x100006644, symSize: 0x28 }
  - { offsetInCU: 0xAE1C, offset: 0xAE1C, size: 0x8, addend: 0x0, symName: __ZNSt3__117__compressed_pairIPPcRNS_9allocatorIS1_EEE6secondB8ue170006Ev, symObjAddr: 0x3A48, symBinAddr: 0x10000666C, symSize: 0x28 }
  - { offsetInCU: 0xAE40, offset: 0xAE40, size: 0x8, addend: 0x0, symName: __ZNSt3__122__compressed_pair_elemIRNS_9allocatorIPcEELi1ELb0EE5__getB8ue170006Ev, symObjAddr: 0x3A70, symBinAddr: 0x100006694, symSize: 0x18 }
  - { offsetInCU: 0xAE64, offset: 0xAE64, size: 0x8, addend: 0x0, symName: __ZNSt3__114__split_bufferIPcRNS_9allocatorIS1_EEE21_ConstructTransactionD2B8ue170006Ev, symObjAddr: 0x3A88, symBinAddr: 0x1000066AC, symSize: 0x20 }
  - { offsetInCU: 0xAE8C, offset: 0xAE8C, size: 0x8, addend: 0x0, symName: __ZNKSt3__113move_iteratorIPPcE4baseB8ue170006Ev, symObjAddr: 0x3B20, symBinAddr: 0x100006744, symSize: 0x18 }
  - { offsetInCU: 0xAEB0, offset: 0xAEB0, size: 0x8, addend: 0x0, symName: __ZNSt3__113move_iteratorIPPcEC2B8ue170006ES2_, symObjAddr: 0x3B38, symBinAddr: 0x10000675C, symSize: 0x20 }
  - { offsetInCU: 0xAEE6, offset: 0xAEE6, size: 0x8, addend: 0x0, symName: __ZNSt3__19allocatorIPcE9constructB8ue170006IS1_JRKS1_EEEvPT_DpOT0_, symObjAddr: 0x3B58, symBinAddr: 0x10000677C, symSize: 0x28 }
  - { offsetInCU: 0xAF3A, offset: 0xAF3A, size: 0x8, addend: 0x0, symName: __ZNSt3__19allocatorIcE8allocateB8ue170006Em, symObjAddr: 0x3B80, symBinAddr: 0x1000067A4, symSize: 0x58 }
  - { offsetInCU: 0xAF76, offset: 0xAF76, size: 0x8, addend: 0x0, symName: __ZNSt3__116allocator_traitsINS_9allocatorIcEEE8max_sizeB8ue170006IS2_vEEmRKS2_, symObjAddr: 0x3BD8, symBinAddr: 0x1000067FC, symSize: 0x24 }
  - { offsetInCU: 0xAFA3, offset: 0xAFA3, size: 0x8, addend: 0x0, symName: __ZNKSt3__19allocatorIcE8max_sizeB8ue170006Ev, symObjAddr: 0x3C58, symBinAddr: 0x10000687C, symSize: 0x14 }
  - { offsetInCU: 0xAFD1, offset: 0xAFD1, size: 0x8, addend: 0x0, symName: __ZNKSt3__123__move_backward_trivialclB8ue170006IPcS2_Li0EEENS_4pairIPT_PT0_EES5_S5_S7_, symObjAddr: 0x3E0C, symBinAddr: 0x100006A30, symSize: 0x48 }
  - { offsetInCU: 0xB037, offset: 0xB037, size: 0x8, addend: 0x0, symName: __ZNSt3__14pairIPPcS2_EC1B8ue170006IRS2_S5_LPv0EEEOT_OT0_, symObjAddr: 0x3F1C, symBinAddr: 0x100006B40, symSize: 0x3C }
  - { offsetInCU: 0xB093, offset: 0xB093, size: 0x8, addend: 0x0, symName: __ZNSt3__14pairIPPcS2_EC2B8ue170006IRS2_S5_LPv0EEEOT_OT0_, symObjAddr: 0x3F58, symBinAddr: 0x100006B7C, symSize: 0x34 }
  - { offsetInCU: 0xB0F9, offset: 0xB0F9, size: 0x8, addend: 0x0, symName: __ZNKSt3__16__lessIvvEclB8ue170006ImmEEbRKT_RKT0_, symObjAddr: 0x3FE0, symBinAddr: 0x100006C04, symSize: 0x34 }
  - { offsetInCU: 0xB14B, offset: 0xB14B, size: 0x8, addend: 0x0, symName: __ZNSt3__114__split_bufferIPcRNS_9allocatorIS1_EEEC2EmmS4_, symObjAddr: 0x4014, symBinAddr: 0x100006C38, symSize: 0xD4 }
  - { offsetInCU: 0xB1BC, offset: 0xB1BC, size: 0x8, addend: 0x0, symName: __ZNSt3__117__compressed_pairIPPcRNS_9allocatorIS1_EEEC1B8ue170006IDnS5_EEOT_OT0_, symObjAddr: 0x40E8, symBinAddr: 0x100006D0C, symSize: 0x3C }
  - { offsetInCU: 0xB212, offset: 0xB212, size: 0x8, addend: 0x0, symName: __ZNSt3__117__compressed_pairIPPcRNS_9allocatorIS1_EEEC2B8ue170006IDnS5_EEOT_OT0_, symObjAddr: 0x4164, symBinAddr: 0x100006D88, symSize: 0x48 }
  - { offsetInCU: 0xB268, offset: 0xB268, size: 0x8, addend: 0x0, symName: __ZNSt3__122__compressed_pair_elemIRNS_9allocatorIPcEELi1ELb0EEC2B8ue170006IS4_vEEOT_, symObjAddr: 0x41AC, symBinAddr: 0x100006DD0, symSize: 0x20 }
  - { offsetInCU: 0xB2A8, offset: 0xB2A8, size: 0x8, addend: 0x0, symName: __ZNSt3__19allocatorIPcE8allocateB8ue170006Em, symObjAddr: 0x41CC, symBinAddr: 0x100006DF0, symSize: 0x58 }
  - { offsetInCU: 0xB2E4, offset: 0xB2E4, size: 0x8, addend: 0x0, symName: __ZNSt3__116allocator_traitsINS_9allocatorIPcEEE8max_sizeB8ue170006IS3_vEEmRKS3_, symObjAddr: 0x4224, symBinAddr: 0x100006E48, symSize: 0x24 }
  - { offsetInCU: 0xB311, offset: 0xB311, size: 0x8, addend: 0x0, symName: __ZNKSt3__19allocatorIPcE8max_sizeB8ue170006Ev, symObjAddr: 0x4248, symBinAddr: 0x100006E6C, symSize: 0x14 }
  - { offsetInCU: 0xB335, offset: 0xB335, size: 0x8, addend: 0x0, symName: __ZNSt3__122__allocator_destructorINS_9allocatorIcEEEC2B8ue170006ERS2_m, symObjAddr: 0x425C, symBinAddr: 0x100006E80, symSize: 0x2C }
  - { offsetInCU: 0xB379, offset: 0xB379, size: 0x8, addend: 0x0, symName: __ZNSt3__110unique_ptrIPcNS_22__allocator_destructorINS_9allocatorIcEEEEEC2B8ue170006ILb1EvEES1_NS_16__dependent_typeINS_27__unique_ptr_deleter_sfinaeIS5_EEXT_EE20__good_rval_ref_typeE, symObjAddr: 0x4288, symBinAddr: 0x100006EAC, symSize: 0x48 }
  - { offsetInCU: 0xB3C8, offset: 0xB3C8, size: 0x8, addend: 0x0, symName: __ZNSt3__117__compressed_pairIPcNS_22__allocator_destructorINS_9allocatorIcEEEEEC1B8ue170006IRS1_S5_EEOT_OT0_, symObjAddr: 0x42D0, symBinAddr: 0x100006EF4, symSize: 0x3C }
  - { offsetInCU: 0xB41E, offset: 0xB41E, size: 0x8, addend: 0x0, symName: __ZNSt3__117__compressed_pairIPcNS_22__allocator_destructorINS_9allocatorIcEEEEEC2B8ue170006IRS1_S5_EEOT_OT0_, symObjAddr: 0x430C, symBinAddr: 0x100006F30, symSize: 0x48 }
  - { offsetInCU: 0xB474, offset: 0xB474, size: 0x8, addend: 0x0, symName: __ZNSt3__122__compressed_pair_elemIPcLi0ELb0EEC2B8ue170006IRS1_vEEOT_, symObjAddr: 0x4354, symBinAddr: 0x100006F78, symSize: 0x24 }
  - { offsetInCU: 0xB4B4, offset: 0xB4B4, size: 0x8, addend: 0x0, symName: __ZNSt3__122__compressed_pair_elemINS_22__allocator_destructorINS_9allocatorIcEEEELi1ELb0EEC2B8ue170006IS4_vEEOT_, symObjAddr: 0x4378, symBinAddr: 0x100006F9C, symSize: 0x24 }
  - { offsetInCU: 0xB4F4, offset: 0xB4F4, size: 0x8, addend: 0x0, symName: __ZNKSt3__117__compressed_pairIPcNS_22__allocator_destructorINS_9allocatorIcEEEEE5firstB8ue170006Ev, symObjAddr: 0x439C, symBinAddr: 0x100006FC0, symSize: 0x24 }
  - { offsetInCU: 0xB518, offset: 0xB518, size: 0x8, addend: 0x0, symName: __ZNKSt3__122__compressed_pair_elemIPcLi0ELb0EE5__getB8ue170006Ev, symObjAddr: 0x43C0, symBinAddr: 0x100006FE4, symSize: 0x14 }
  - { offsetInCU: 0xB53C, offset: 0xB53C, size: 0x8, addend: 0x0, symName: __ZNSt3__117__compressed_pairIPcNS_22__allocator_destructorINS_9allocatorIcEEEEE5firstB8ue170006Ev, symObjAddr: 0x43D4, symBinAddr: 0x100006FF8, symSize: 0x24 }
  - { offsetInCU: 0xB560, offset: 0xB560, size: 0x8, addend: 0x0, symName: __ZNSt3__122__compressed_pair_elemIPcLi0ELb0EE5__getB8ue170006Ev, symObjAddr: 0x43F8, symBinAddr: 0x10000701C, symSize: 0x14 }
  - { offsetInCU: 0xB584, offset: 0xB584, size: 0x8, addend: 0x0, symName: __ZNSt3__117__compressed_pairIPPcNS_9allocatorIS1_EEE5firstB8ue170006Ev, symObjAddr: 0x440C, symBinAddr: 0x100007030, symSize: 0x24 }
  - { offsetInCU: 0xB5A8, offset: 0xB5A8, size: 0x8, addend: 0x0, symName: __ZNSt3__122__compressed_pair_elemIPPcLi0ELb0EE5__getB8ue170006Ev, symObjAddr: 0x4430, symBinAddr: 0x100007054, symSize: 0x14 }
  - { offsetInCU: 0xB5CC, offset: 0xB5CC, size: 0x8, addend: 0x0, symName: __ZNSt3__117__compressed_pairIPPcRNS_9allocatorIS1_EEE5firstB8ue170006Ev, symObjAddr: 0x4444, symBinAddr: 0x100007068, symSize: 0x24 }
  - { offsetInCU: 0xB5F0, offset: 0xB5F0, size: 0x8, addend: 0x0, symName: __ZNSt3__110unique_ptrIPcNS_22__allocator_destructorINS_9allocatorIcEEEEED2B8ue170006Ev, symObjAddr: 0x4468, symBinAddr: 0x10000708C, symSize: 0x30 }
  - { offsetInCU: 0xB618, offset: 0xB618, size: 0x8, addend: 0x0, symName: __ZNSt3__110unique_ptrIPcNS_22__allocator_destructorINS_9allocatorIcEEEEE5resetB8ue170006ES1_, symObjAddr: 0x4498, symBinAddr: 0x1000070BC, symSize: 0x78 }
  - { offsetInCU: 0xB65A, offset: 0xB65A, size: 0x8, addend: 0x0, symName: __ZNSt3__117__compressed_pairIPcNS_22__allocator_destructorINS_9allocatorIcEEEEE6secondB8ue170006Ev, symObjAddr: 0x4510, symBinAddr: 0x100007134, symSize: 0x28 }
  - { offsetInCU: 0xB67E, offset: 0xB67E, size: 0x8, addend: 0x0, symName: __ZNSt3__122__allocator_destructorINS_9allocatorIcEEEclB8ue170006EPc, symObjAddr: 0x4538, symBinAddr: 0x10000715C, symSize: 0x34 }
  - { offsetInCU: 0xB6B0, offset: 0xB6B0, size: 0x8, addend: 0x0, symName: __ZNSt3__122__compressed_pair_elemINS_22__allocator_destructorINS_9allocatorIcEEEELi1ELb0EE5__getB8ue170006Ev, symObjAddr: 0x456C, symBinAddr: 0x100007190, symSize: 0x14 }
  - { offsetInCU: 0xB6D4, offset: 0xB6D4, size: 0x8, addend: 0x0, symName: __ZNSt3__114__split_bufferIPcRNS_9allocatorIS1_EEED2Ev, symObjAddr: 0x4580, symBinAddr: 0x1000071A4, symSize: 0x8C }
  - { offsetInCU: 0xB6FE, offset: 0xB6FE, size: 0x8, addend: 0x0, symName: __ZNSt3__114__split_bufferIPcRNS_9allocatorIS1_EEE5clearB8ue170006Ev, symObjAddr: 0x460C, symBinAddr: 0x100007230, symSize: 0x28 }
  - { offsetInCU: 0xB722, offset: 0xB722, size: 0x8, addend: 0x0, symName: __ZNKSt3__114__split_bufferIPcRNS_9allocatorIS1_EEE8capacityB8ue170006Ev, symObjAddr: 0x4634, symBinAddr: 0x100007258, symSize: 0x40 }
  - { offsetInCU: 0xB746, offset: 0xB746, size: 0x8, addend: 0x0, symName: __ZNSt3__114__split_bufferIPcRNS_9allocatorIS1_EEE17__destruct_at_endB8ue170006EPS1_, symObjAddr: 0x4674, symBinAddr: 0x100007298, symSize: 0x2C }
  - { offsetInCU: 0xB778, offset: 0xB778, size: 0x8, addend: 0x0, symName: __ZNSt3__114__split_bufferIPcRNS_9allocatorIS1_EEE17__destruct_at_endB8ue170006EPS1_NS_17integral_constantIbLb0EEE, symObjAddr: 0x46A0, symBinAddr: 0x1000072C4, symSize: 0x80 }
  - { offsetInCU: 0xB7B6, offset: 0xB7B6, size: 0x8, addend: 0x0, symName: __ZNKSt3__114__split_bufferIPcRNS_9allocatorIS1_EEE9__end_capB8ue170006Ev, symObjAddr: 0x4720, symBinAddr: 0x100007344, symSize: 0x28 }
  - { offsetInCU: 0xB7DA, offset: 0xB7DA, size: 0x8, addend: 0x0, symName: __ZNKSt3__117__compressed_pairIPPcRNS_9allocatorIS1_EEE5firstB8ue170006Ev, symObjAddr: 0x4748, symBinAddr: 0x10000736C, symSize: 0x24 }
  - { offsetInCU: 0xB7FE, offset: 0xB7FE, size: 0x8, addend: 0x0, symName: __ZNSt3__19allocatorIcE9constructB8ue170006IcJcEEEvPT_DpOT0_, symObjAddr: 0x476C, symBinAddr: 0x100007390, symSize: 0x28 }
  - { offsetInCU: 0xB852, offset: 0xB852, size: 0x8, addend: 0x0, symName: __ZNKSt3__112basic_stringIcNS_11char_traitsIcEENS_9allocatorIcEEE4sizeB8ue170006Ev, symObjAddr: 0x4794, symBinAddr: 0x1000073B8, symSize: 0x54 }
  - { offsetInCU: 0xB876, offset: 0xB876, size: 0x8, addend: 0x0, symName: __ZNKSt3__112basic_stringIcNS_11char_traitsIcEENS_9allocatorIcEEE15__get_long_sizeB8ue170006Ev, symObjAddr: 0x47E8, symBinAddr: 0x10000740C, symSize: 0x28 }
  - { offsetInCU: 0xB89A, offset: 0xB89A, size: 0x8, addend: 0x0, symName: __ZNKSt3__112basic_stringIcNS_11char_traitsIcEENS_9allocatorIcEEE16__get_short_sizeB8ue170006Ev, symObjAddr: 0x4810, symBinAddr: 0x100007434, symSize: 0x34 }
  - { offsetInCU: 0xB8BE, offset: 0xB8BE, size: 0x8, addend: 0x0, symName: __ZNSt3__15dequeIcNS_9allocatorIcEEE9push_backERKc, symObjAddr: 0x4844, symBinAddr: 0x100007468, symSize: 0xAC }
  - { offsetInCU: 0xB902, offset: 0xB902, size: 0x8, addend: 0x0, symName: __ZNSt3__116allocator_traitsINS_9allocatorIcEEE9constructB8ue170006IcJRKcEvEEvRS2_PT_DpOT0_, symObjAddr: 0x48F0, symBinAddr: 0x100007514, symSize: 0x34 }
  - { offsetInCU: 0xB958, offset: 0xB958, size: 0x8, addend: 0x0, symName: __ZNSt3__19allocatorIcE9constructB8ue170006IcJRKcEEEvPT_DpOT0_, symObjAddr: 0x4924, symBinAddr: 0x100007548, symSize: 0x28 }
  - { offsetInCU: 0xB9AC, offset: 0xB9AC, size: 0x8, addend: 0x0, symName: __ZNSt3__15dequeIcNS_9allocatorIcEEE4backEv, symObjAddr: 0x494C, symBinAddr: 0x100007570, symSize: 0x68 }
  - { offsetInCU: 0xB9E1, offset: 0xB9E1, size: 0x8, addend: 0x0, symName: __ZNSt3__15dequeIcNS_9allocatorIcEEE8pop_backEv, symObjAddr: 0x49B4, symBinAddr: 0x1000075D8, symSize: 0xE0 }
  - { offsetInCU: 0xBA43, offset: 0xBA43, size: 0x8, addend: 0x0, symName: __ZNKSt3__15dequeIcNS_9allocatorIcEEE22__annotate_shrink_backB8ue170006Emm, symObjAddr: 0x4A94, symBinAddr: 0x1000076B8, symSize: 0x60 }
  - { offsetInCU: 0xBA85, offset: 0xBA85, size: 0x8, addend: 0x0, symName: __ZNSt3__15dequeIcNS_9allocatorIcEEE25__maybe_remove_back_spareB8ue170006Eb, symObjAddr: 0x4AF4, symBinAddr: 0x100007718, symSize: 0xE8 }
  - { offsetInCU: 0xBAB8, offset: 0xBAB8, size: 0x8, addend: 0x0, symName: __ZNKSt3__15dequeIcNS_9allocatorIcEEE19__back_spare_blocksB8ue170006Ev, symObjAddr: 0x4BDC, symBinAddr: 0x100007800, symSize: 0x2C }
  - { offsetInCU: 0xBADC, offset: 0xBADC, size: 0x8, addend: 0x0, symName: __ZNSt3__114__split_bufferIPcNS_9allocatorIS1_EEE4backB8ue170006Ev, symObjAddr: 0x4C08, symBinAddr: 0x10000782C, symSize: 0x1C }
  - { offsetInCU: 0xBB00, offset: 0xBB00, size: 0x8, addend: 0x0, symName: __ZNSt3__114__split_bufferIPcNS_9allocatorIS1_EEE8pop_backB8ue170006Ev, symObjAddr: 0x4C24, symBinAddr: 0x100007848, symSize: 0x2C }
  - { offsetInCU: 0xBB24, offset: 0xBB24, size: 0x8, addend: 0x0, symName: __ZNSt3__112basic_stringIcNS_11char_traitsIcEENS_9allocatorIcEEEC2B8ue170006ILi0EEEPKc, symObjAddr: 0x4C50, symBinAddr: 0x100007874, symSize: 0x58 }
  - { offsetInCU: 0xBB61, offset: 0xBB61, size: 0x8, addend: 0x0, symName: __ZNSt3__117__compressed_pairINS_12basic_stringIcNS_11char_traitsIcEENS_9allocatorIcEEE5__repES5_EC1B8ue170006INS_18__default_init_tagESA_EEOT_OT0_, symObjAddr: 0x4CA8, symBinAddr: 0x1000078CC, symSize: 0x3C }
  - { offsetInCU: 0xBBB7, offset: 0xBBB7, size: 0x8, addend: 0x0, symName: __ZNSt3__111char_traitsIcE6lengthB8ue170006EPKc, symObjAddr: 0x4CE4, symBinAddr: 0x100007908, symSize: 0x34 }
  - { offsetInCU: 0xBBD9, offset: 0xBBD9, size: 0x8, addend: 0x0, symName: __ZNSt3__117__compressed_pairINS_12basic_stringIcNS_11char_traitsIcEENS_9allocatorIcEEE5__repES5_EC2B8ue170006INS_18__default_init_tagESA_EEOT_OT0_, symObjAddr: 0x4D18, symBinAddr: 0x10000793C, symSize: 0x3C }
  - { offsetInCU: 0xBC2F, offset: 0xBC2F, size: 0x8, addend: 0x0, symName: __ZNSt3__122__compressed_pair_elemINS_12basic_stringIcNS_11char_traitsIcEENS_9allocatorIcEEE5__repELi0ELb0EEC2B8ue170006ENS_18__default_init_tagE, symObjAddr: 0x4D54, symBinAddr: 0x100007978, symSize: 0x14 }
...
