---
triple:          'arm64-apple-darwin'
binary-path:     '/Users/dhruvasharma/Documents/Projects/LearnCpp/dsa/fibonacci_matrixmul'
relocations:
  - { offsetInCU: 0x485E, offset: 0x485E, size: 0x8, addend: 0x0, symName: __ZNSt3__17advanceB8ne180100IPNS_6vectorIxNS_9allocatorIxEEEEllvEEvRT_T0_, symObjAddr: 0x3248, symBinAddr: 0x100003C68, symSize: 0x38 }
  - { offsetInCU: 0x4C56, offset: 0x4C56, size: 0x8, addend: 0x0, symName: __ZNSt3__17advanceB8ne180100IPxllvEEvRT_T0_, symObjAddr: 0x40A8, symBinAddr: 0x100004AC8, symSize: 0x38 }
  - { offsetInCU: 0x6B0F, offset: 0x6B0F, size: 0x8, addend: 0x0, symName: __ZNSt3__122__make_exception_guardB8ne180100INS_6vectorIxNS_9allocatorIxEEE16__destroy_vectorEEENS_28__exception_guard_exceptionsIT_EES7_, symObjAddr: 0xB4C, symBinAddr: 0x10000156C, symSize: 0x40 }
  - { offsetInCU: 0x6B44, offset: 0x6B44, size: 0x8, addend: 0x0, symName: __ZNSt3__119__allocate_at_leastB8ne180100INS_9allocatorIxEEEENS_19__allocation_resultINS_16allocator_traitsIT_E7pointerEEERS5_m, symObjAddr: 0xF40, symBinAddr: 0x100001960, symSize: 0x40 }
  - { offsetInCU: 0x6B87, offset: 0x6B87, size: 0x8, addend: 0x0, symName: __ZNSt3__13minB8ne180100ImEERKT_S3_S3_, symObjAddr: 0xFE4, symBinAddr: 0x100001A04, symSize: 0x2C }
  - { offsetInCU: 0x6DCB, offset: 0x6DCB, size: 0x8, addend: 0x0, symName: __ZNSt3__13minB8ne180100ImNS_6__lessIvvEEEERKT_S5_S5_T0_, symObjAddr: 0x107C, symBinAddr: 0x100001A9C, symSize: 0x54 }
  - { offsetInCU: 0x6E6A, offset: 0x6E6A, size: 0x8, addend: 0x0, symName: __ZNSt3__120__throw_length_errorB8ne180100EPKc, symObjAddr: 0x1158, symBinAddr: 0x100001B78, symSize: 0x64 }
  - { offsetInCU: 0x6E92, offset: 0x6E92, size: 0x8, addend: 0x0, symName: __ZNSt3__117__libcpp_allocateB8ne180100Emm, symObjAddr: 0x12C8, symBinAddr: 0x100001CE8, symSize: 0x28 }
  - { offsetInCU: 0x6ECF, offset: 0x6ECF, size: 0x8, addend: 0x0, symName: __ZNSt3__121__libcpp_operator_newB8ne180100IJmEEEPvDpT_, symObjAddr: 0x12F0, symBinAddr: 0x100001D10, symSize: 0x24 }
  - { offsetInCU: 0x6F08, offset: 0x6F08, size: 0x8, addend: 0x0, symName: __ZNSt3__112__to_addressB8ne180100IxEEPT_S2_, symObjAddr: 0x13F4, symBinAddr: 0x100001E14, symSize: 0x14 }
  - { offsetInCU: 0x6F3D, offset: 0x6F3D, size: 0x8, addend: 0x0, symName: __ZNSt3__119__libcpp_deallocateB8ne180100EPvmm, symObjAddr: 0x1758, symBinAddr: 0x100002178, symSize: 0x30 }
  - { offsetInCU: 0x6F85, offset: 0x6F85, size: 0x8, addend: 0x0, symName: __ZNSt3__127__do_deallocate_handle_sizeB8ne180100IJEEEvPvmDpT_, symObjAddr: 0x1788, symBinAddr: 0x1000021A8, symSize: 0x28 }
  - { offsetInCU: 0x6FC3, offset: 0x6FC3, size: 0x8, addend: 0x0, symName: __ZNSt3__124__libcpp_operator_deleteB8ne180100IJPvEEEvDpT_, symObjAddr: 0x17B0, symBinAddr: 0x1000021D0, symSize: 0x24 }
  - { offsetInCU: 0x6FF8, offset: 0x6FF8, size: 0x8, addend: 0x0, symName: __ZNSt3__122__make_exception_guardB8ne180100INS_6vectorINS1_IxNS_9allocatorIxEEEENS2_IS4_EEE16__destroy_vectorEEENS_28__exception_guard_exceptionsIT_EES9_, symObjAddr: 0x198C, symBinAddr: 0x1000023AC, symSize: 0x40 }
  - { offsetInCU: 0x702D, offset: 0x702D, size: 0x8, addend: 0x0, symName: __ZNSt3__119__allocate_at_leastB8ne180100INS_9allocatorINS_6vectorIxNS1_IxEEEEEEEENS_19__allocation_resultINS_16allocator_traitsIT_E7pointerEEERS8_m, symObjAddr: 0x1D88, symBinAddr: 0x1000027A8, symSize: 0x40 }
  - { offsetInCU: 0x7070, offset: 0x7070, size: 0x8, addend: 0x0, symName: __ZNSt3__112__to_addressB8ne180100INS_6vectorIxNS_9allocatorIxEEEEEEPT_S6_, symObjAddr: 0x2004, symBinAddr: 0x100002A24, symSize: 0x14 }
  - { offsetInCU: 0x70A5, offset: 0x70A5, size: 0x8, addend: 0x0, symName: __ZNSt3__130__uninitialized_allocator_copyB8ne180100INS_9allocatorIxEEPxS3_S3_EET2_RT_T0_T1_S4_, symObjAddr: 0x239C, symBinAddr: 0x100002DBC, symSize: 0x80 }
  - { offsetInCU: 0x7142, offset: 0x7142, size: 0x8, addend: 0x0, symName: __ZNSt3__114__unwrap_rangeB8ne180100IPxS1_EENS_4pairIT0_S3_EET_S5_, symObjAddr: 0x241C, symBinAddr: 0x100002E3C, symSize: 0x60 }
  - { offsetInCU: 0x718E, offset: 0x718E, size: 0x8, addend: 0x0, symName: __ZNSt3__135__uninitialized_allocator_copy_implB8ne180100INS_9allocatorIxEExxxLPv0EEEPT2_RT_PT0_S9_S5_, symObjAddr: 0x247C, symBinAddr: 0x100002E9C, symSize: 0x38 }
  - { offsetInCU: 0x720F, offset: 0x720F, size: 0x8, addend: 0x0, symName: __ZNSt3__113__unwrap_iterB8ne180100IPxNS_18__unwrap_iter_implIS1_Lb1EEELi0EEEDTclsrT0_8__unwrapclsr3stdE7declvalIT_EEEES5_, symObjAddr: 0x24B4, symBinAddr: 0x100002ED4, symSize: 0x24 }
  - { offsetInCU: 0x7253, offset: 0x7253, size: 0x8, addend: 0x0, symName: __ZNSt3__113__rewrap_iterB8ne180100IPxS1_NS_18__unwrap_iter_implIS1_Lb1EEEEET_S4_T0_, symObjAddr: 0x24D8, symBinAddr: 0x100002EF8, symSize: 0x3C }
  - { offsetInCU: 0x72A8, offset: 0x72A8, size: 0x8, addend: 0x0, symName: __ZNSt3__19make_pairB8ne180100IPxS1_EENS_4pairINS_18__unwrap_ref_decayIT_E4typeENS3_IT0_E4typeEEEOS4_OS7_, symObjAddr: 0x2514, symBinAddr: 0x100002F34, symSize: 0x38 }
  - { offsetInCU: 0x73FA, offset: 0x73FA, size: 0x8, addend: 0x0, symName: __ZNSt3__14copyB8ne180100IPxS1_EET0_T_S3_S2_, symObjAddr: 0x25BC, symBinAddr: 0x100002FDC, symSize: 0x40 }
  - { offsetInCU: 0x7454, offset: 0x7454, size: 0x8, addend: 0x0, symName: __ZNSt3__16__copyB8ne180100INS_17_ClassicAlgPolicyEPxS2_S2_EENS_4pairIT0_T2_EES4_T1_S5_, symObjAddr: 0x25FC, symBinAddr: 0x10000301C, symSize: 0x44 }
  - { offsetInCU: 0x74C0, offset: 0x74C0, size: 0x8, addend: 0x0, symName: __ZNSt3__123__dispatch_copy_or_moveB8ne180100INS_17_ClassicAlgPolicyENS_11__copy_loopIS1_EENS_14__copy_trivialEPxS5_S5_EENS_4pairIT2_T4_EES7_T3_S8_, symObjAddr: 0x2640, symBinAddr: 0x100003060, symSize: 0x44 }
  - { offsetInCU: 0x753E, offset: 0x753E, size: 0x8, addend: 0x0, symName: __ZNSt3__121__unwrap_and_dispatchB8ne180100INS_10__overloadINS_11__copy_loopINS_17_ClassicAlgPolicyEEENS_14__copy_trivialEEEPxS7_S7_Li0EEENS_4pairIT0_T2_EES9_T1_SA_, symObjAddr: 0x2684, symBinAddr: 0x1000030A4, symSize: 0xB4 }
  - { offsetInCU: 0x76C6, offset: 0x76C6, size: 0x8, addend: 0x0, symName: __ZNSt3__114__rewrap_rangeB8ne180100IPxS1_EET_S2_T0_, symObjAddr: 0x2780, symBinAddr: 0x1000031A0, symSize: 0x2C }
  - { offsetInCU: 0x7712, offset: 0x7712, size: 0x8, addend: 0x0, symName: __ZNSt3__119__copy_trivial_implB8ne180100IxxEENS_4pairIPT_PT0_EES3_S3_S5_, symObjAddr: 0x27AC, symBinAddr: 0x1000031CC, symSize: 0x80 }
  - { offsetInCU: 0x777A, offset: 0x777A, size: 0x8, addend: 0x0, symName: __ZNSt3__119__constexpr_memmoveB8ne180100IxxLi0EEEPT_S2_PT0_NS_15__element_countE, symObjAddr: 0x282C, symBinAddr: 0x10000324C, symSize: 0x64 }
  - { offsetInCU: 0x77E8, offset: 0x77E8, size: 0x8, addend: 0x0, symName: __ZNSt3__19make_pairB8ne180100IRPxS1_EENS_4pairINS_18__unwrap_ref_decayIT_E4typeENS4_IT0_E4typeEEEOS5_OS8_, symObjAddr: 0x2890, symBinAddr: 0x1000032B0, symSize: 0x38 }
  - { offsetInCU: 0x788A, offset: 0x788A, size: 0x8, addend: 0x0, symName: __ZNSt3__18distanceB8ne180100IPNS_6vectorIxNS_9allocatorIxEEEEEENS_15iterator_traitsIT_E15difference_typeES7_S7_, symObjAddr: 0x2F1C, symBinAddr: 0x10000393C, symSize: 0x2C }
  - { offsetInCU: 0x78CD, offset: 0x78CD, size: 0x8, addend: 0x0, symName: __ZNSt3__14nextB8ne180100IPNS_6vectorIxNS_9allocatorIxEEEELi0EEET_S6_NS_15iterator_traitsIS6_E15difference_typeE, symObjAddr: 0x2F70, symBinAddr: 0x100003990, symSize: 0x34 }
  - { offsetInCU: 0x7916, offset: 0x7916, size: 0x8, addend: 0x0, symName: __ZNSt3__14copyB8ne180100IPNS_6vectorIxNS_9allocatorIxEEEES5_EET0_T_S7_S6_, symObjAddr: 0x2FA4, symBinAddr: 0x1000039C4, symSize: 0x40 }
  - { offsetInCU: 0x7970, offset: 0x7970, size: 0x8, addend: 0x0, symName: __ZNSt3__16__copyB8ne180100INS_17_ClassicAlgPolicyEPNS_6vectorIxNS_9allocatorIxEEEES6_S6_EENS_4pairIT0_T2_EES8_T1_S9_, symObjAddr: 0x3070, symBinAddr: 0x100003A90, symSize: 0x44 }
  - { offsetInCU: 0x79DC, offset: 0x79DC, size: 0x8, addend: 0x0, symName: __ZNSt3__121__convert_to_integralB8ne180100El, symObjAddr: 0x3280, symBinAddr: 0x100003CA0, symSize: 0x14 }
  - { offsetInCU: 0x7A08, offset: 0x7A08, size: 0x8, addend: 0x0, symName: __ZNSt3__19__advanceB8ne180100IPNS_6vectorIxNS_9allocatorIxEEEEEEvRT_NS_15iterator_traitsIS6_E15difference_typeENS_26random_access_iterator_tagE, symObjAddr: 0x3294, symBinAddr: 0x100003CB4, symSize: 0x30 }
  - { offsetInCU: 0x7A51, offset: 0x7A51, size: 0x8, addend: 0x0, symName: __ZNSt3__130__uninitialized_allocator_copyB8ne180100INS_9allocatorINS_6vectorIxNS1_IxEEEEEEPS4_S6_S6_EET2_RT_T0_T1_S7_, symObjAddr: 0x32C4, symBinAddr: 0x100003CE4, symSize: 0x80 }
  - { offsetInCU: 0x7AEE, offset: 0x7AEE, size: 0x8, addend: 0x0, symName: __ZNSt3__114__unwrap_rangeB8ne180100IPNS_6vectorIxNS_9allocatorIxEEEES5_EENS_4pairIT0_S7_EET_S9_, symObjAddr: 0x3344, symBinAddr: 0x100003D64, symSize: 0x60 }
  - { offsetInCU: 0x7B3A, offset: 0x7B3A, size: 0x8, addend: 0x0, symName: __ZNSt3__135__uninitialized_allocator_copy_implB8ne180100INS_9allocatorINS_6vectorIxNS1_IxEEEEEEPS4_S6_S6_EET2_RT_T0_T1_S7_, symObjAddr: 0x33A4, symBinAddr: 0x100003DC4, symSize: 0xF4 }
  - { offsetInCU: 0x7BD8, offset: 0x7BD8, size: 0x8, addend: 0x0, symName: __ZNSt3__113__unwrap_iterB8ne180100IPNS_6vectorIxNS_9allocatorIxEEEENS_18__unwrap_iter_implIS5_Lb1EEELi0EEEDTclsrT0_8__unwrapclsr3stdE7declvalIT_EEEES9_, symObjAddr: 0x3498, symBinAddr: 0x100003EB8, symSize: 0x24 }
  - { offsetInCU: 0x7C1C, offset: 0x7C1C, size: 0x8, addend: 0x0, symName: __ZNSt3__113__rewrap_iterB8ne180100IPNS_6vectorIxNS_9allocatorIxEEEES5_NS_18__unwrap_iter_implIS5_Lb1EEEEET_S8_T0_, symObjAddr: 0x34BC, symBinAddr: 0x100003EDC, symSize: 0x3C }
  - { offsetInCU: 0x7C71, offset: 0x7C71, size: 0x8, addend: 0x0, symName: __ZNSt3__19make_pairB8ne180100IPNS_6vectorIxNS_9allocatorIxEEEES5_EENS_4pairINS_18__unwrap_ref_decayIT_E4typeENS7_IT0_E4typeEEEOS8_OSB_, symObjAddr: 0x34F8, symBinAddr: 0x100003F18, symSize: 0x38 }
  - { offsetInCU: 0x7D94, offset: 0x7D94, size: 0x8, addend: 0x0, symName: __ZNSt3__122__make_exception_guardB8ne180100INS_29_AllocatorDestroyRangeReverseINS_9allocatorINS_6vectorIxNS2_IxEEEEEEPS5_EEEENS_28__exception_guard_exceptionsIT_EESA_, symObjAddr: 0x35A0, symBinAddr: 0x100003FC0, symSize: 0x4C }
  - { offsetInCU: 0x7DCA, offset: 0x7DCA, size: 0x8, addend: 0x0, symName: __ZNSt3__119__allocator_destroyB8ne180100INS_9allocatorINS_6vectorIxNS1_IxEEEEEENS_16reverse_iteratorIPS4_EES8_EEvRT_T0_T1_, symObjAddr: 0x3830, symBinAddr: 0x100004250, symSize: 0x70 }
  - { offsetInCU: 0x7E2D, offset: 0x7E2D, size: 0x8, addend: 0x0, symName: __ZNSt3__1neB8ne180100IPNS_6vectorIxNS_9allocatorIxEEEES5_EEbRKNS_16reverse_iteratorIT_EERKNS6_IT0_EE, symObjAddr: 0x38D4, symBinAddr: 0x1000042F4, symSize: 0x48 }
  - { offsetInCU: 0x7E79, offset: 0x7E79, size: 0x8, addend: 0x0, symName: __ZNSt3__112__to_addressB8ne180100INS_16reverse_iteratorIPNS_6vectorIxNS_9allocatorIxEEEEEEvEEu7__decayIDTclsr19__to_address_helperIT_EE6__callclsr3stdE7declvalIRKS8_EEEEESA_, symObjAddr: 0x391C, symBinAddr: 0x10000433C, symSize: 0x24 }
  - { offsetInCU: 0x7F2B, offset: 0x7F2B, size: 0x8, addend: 0x0, symName: __ZNSt3__123__dispatch_copy_or_moveB8ne180100INS_17_ClassicAlgPolicyENS_11__copy_loopIS1_EENS_14__copy_trivialEPNS_6vectorIxNS_9allocatorIxEEEES9_S9_EENS_4pairIT2_T4_EESB_T3_SC_, symObjAddr: 0x3AA0, symBinAddr: 0x1000044C0, symSize: 0x44 }
  - { offsetInCU: 0x7FA9, offset: 0x7FA9, size: 0x8, addend: 0x0, symName: __ZNSt3__121__unwrap_and_dispatchB8ne180100INS_10__overloadINS_11__copy_loopINS_17_ClassicAlgPolicyEEENS_14__copy_trivialEEEPNS_6vectorIxNS_9allocatorIxEEEESB_SB_Li0EEENS_4pairIT0_T2_EESD_T1_SE_, symObjAddr: 0x3AE4, symBinAddr: 0x100004504, symSize: 0xB4 }
  - { offsetInCU: 0x8092, offset: 0x8092, size: 0x8, addend: 0x0, symName: __ZNSt3__114__rewrap_rangeB8ne180100IPNS_6vectorIxNS_9allocatorIxEEEES5_EET_S6_T0_, symObjAddr: 0x3C20, symBinAddr: 0x100004640, symSize: 0x2C }
  - { offsetInCU: 0x80DE, offset: 0x80DE, size: 0x8, addend: 0x0, symName: __ZNSt3__18distanceB8ne180100IPxEENS_15iterator_traitsIT_E15difference_typeES3_S3_, symObjAddr: 0x3EB4, symBinAddr: 0x1000048D4, symSize: 0x2C }
  - { offsetInCU: 0x8121, offset: 0x8121, size: 0x8, addend: 0x0, symName: __ZNSt3__14nextB8ne180100IPxLi0EEET_S2_NS_15iterator_traitsIS2_E15difference_typeE, symObjAddr: 0x3EE0, symBinAddr: 0x100004900, symSize: 0x34 }
  - { offsetInCU: 0x816A, offset: 0x816A, size: 0x8, addend: 0x0, symName: __ZNSt3__19__advanceB8ne180100IPxEEvRT_NS_15iterator_traitsIS2_E15difference_typeENS_26random_access_iterator_tagE, symObjAddr: 0x40E0, symBinAddr: 0x100004B00, symSize: 0x28 }
  - { offsetInCU: 0x81B3, offset: 0x81B3, size: 0x8, addend: 0x0, symName: __ZNSt3__13maxB8ne180100ImEERKT_S3_S3_, symObjAddr: 0x4160, symBinAddr: 0x100004B80, symSize: 0x2C }
  - { offsetInCU: 0x81F6, offset: 0x81F6, size: 0x8, addend: 0x0, symName: __ZNSt3__13maxB8ne180100ImNS_6__lessIvvEEEERKT_S5_S5_T0_, symObjAddr: 0x418C, symBinAddr: 0x100004BAC, symSize: 0x54 }
  - { offsetInCU: 0x8250, offset: 0x8250, size: 0x8, addend: 0x0, symName: __ZNSt3__110__distanceB8ne180100IPxEENS_15iterator_traitsIT_E15difference_typeES3_S3_NS_26random_access_iterator_tagE, symObjAddr: 0x41E0, symBinAddr: 0x100004C00, symSize: 0x28 }
  - { offsetInCU: 0x829D, offset: 0x829D, size: 0x8, addend: 0x0, symName: __ZNSt3__110__distanceB8ne180100IPNS_6vectorIxNS_9allocatorIxEEEEEENS_15iterator_traitsIT_E15difference_typeES7_S7_NS_26random_access_iterator_tagE, symObjAddr: 0x4260, symBinAddr: 0x100004C80, symSize: 0x28 }
  - { offsetInCU: 0x82EA, offset: 0x82EA, size: 0x8, addend: 0x0, symName: __ZNSt3__130__uninitialized_allocator_copyB8ne180100INS_9allocatorIxEEPKxS4_PxEET2_RT_T0_T1_S6_, symObjAddr: 0x4484, symBinAddr: 0x100004EA4, symSize: 0x80 }
  - { offsetInCU: 0x8387, offset: 0x8387, size: 0x8, addend: 0x0, symName: __ZNSt3__114__unwrap_rangeB8ne180100IPKxS2_EENS_4pairIT0_S4_EET_S6_, symObjAddr: 0x4504, symBinAddr: 0x100004F24, symSize: 0x60 }
  - { offsetInCU: 0x83D3, offset: 0x83D3, size: 0x8, addend: 0x0, symName: __ZNSt3__135__uninitialized_allocator_copy_implB8ne180100INS_9allocatorIxEEKxxxLPv0EEEPT2_RT_PT0_SA_S6_, symObjAddr: 0x4564, symBinAddr: 0x100004F84, symSize: 0x38 }
  - { offsetInCU: 0x8454, offset: 0x8454, size: 0x8, addend: 0x0, symName: __ZNSt3__19make_pairB8ne180100IPKxS2_EENS_4pairINS_18__unwrap_ref_decayIT_E4typeENS4_IT0_E4typeEEEOS5_OS8_, symObjAddr: 0x459C, symBinAddr: 0x100004FBC, symSize: 0x38 }
  - { offsetInCU: 0x84A3, offset: 0x84A3, size: 0x8, addend: 0x0, symName: __ZNSt3__113__unwrap_iterB8ne180100IPKxNS_18__unwrap_iter_implIS2_Lb1EEELi0EEEDTclsrT0_8__unwrapclsr3stdE7declvalIT_EEEES6_, symObjAddr: 0x45D4, symBinAddr: 0x100004FF4, symSize: 0x24 }
  - { offsetInCU: 0x860E, offset: 0x860E, size: 0x8, addend: 0x0, symName: __ZNSt3__112__to_addressB8ne180100IKxEEPT_S3_, symObjAddr: 0x468C, symBinAddr: 0x1000050AC, symSize: 0x14 }
  - { offsetInCU: 0x8643, offset: 0x8643, size: 0x8, addend: 0x0, symName: __ZNSt3__14copyB8ne180100IPKxPxEET0_T_S5_S4_, symObjAddr: 0x46A0, symBinAddr: 0x1000050C0, symSize: 0x40 }
  - { offsetInCU: 0x869D, offset: 0x869D, size: 0x8, addend: 0x0, symName: __ZNSt3__16__copyB8ne180100INS_17_ClassicAlgPolicyEPKxS3_PxEENS_4pairIT0_T2_EES6_T1_S7_, symObjAddr: 0x46E0, symBinAddr: 0x100005100, symSize: 0x44 }
  - { offsetInCU: 0x8709, offset: 0x8709, size: 0x8, addend: 0x0, symName: __ZNSt3__123__dispatch_copy_or_moveB8ne180100INS_17_ClassicAlgPolicyENS_11__copy_loopIS1_EENS_14__copy_trivialEPKxS6_PxEENS_4pairIT2_T4_EES9_T3_SA_, symObjAddr: 0x4724, symBinAddr: 0x100005144, symSize: 0x44 }
  - { offsetInCU: 0x8787, offset: 0x8787, size: 0x8, addend: 0x0, symName: __ZNSt3__121__unwrap_and_dispatchB8ne180100INS_10__overloadINS_11__copy_loopINS_17_ClassicAlgPolicyEEENS_14__copy_trivialEEEPKxS8_PxLi0EEENS_4pairIT0_T2_EESB_T1_SC_, symObjAddr: 0x4768, symBinAddr: 0x100005188, symSize: 0xB4 }
  - { offsetInCU: 0x8918, offset: 0x8918, size: 0x8, addend: 0x0, symName: __ZNSt3__19make_pairB8ne180100IPKxPxEENS_4pairINS_18__unwrap_ref_decayIT_E4typeENS5_IT0_E4typeEEEOS6_OS9_, symObjAddr: 0x4864, symBinAddr: 0x100005284, symSize: 0x38 }
  - { offsetInCU: 0x8967, offset: 0x8967, size: 0x8, addend: 0x0, symName: __ZNSt3__114__rewrap_rangeB8ne180100IPKxS2_EET_S3_T0_, symObjAddr: 0x489C, symBinAddr: 0x1000052BC, symSize: 0x2C }
  - { offsetInCU: 0x89B3, offset: 0x89B3, size: 0x8, addend: 0x0, symName: __ZNSt3__119__copy_trivial_implB8ne180100IKxxEENS_4pairIPT_PT0_EES4_S4_S6_, symObjAddr: 0x48C8, symBinAddr: 0x1000052E8, symSize: 0x80 }
  - { offsetInCU: 0x8A1B, offset: 0x8A1B, size: 0x8, addend: 0x0, symName: __ZNSt3__119__constexpr_memmoveB8ne180100IxKxLi0EEEPT_S3_PT0_NS_15__element_countE, symObjAddr: 0x4948, symBinAddr: 0x100005368, symSize: 0x64 }
  - { offsetInCU: 0x8A89, offset: 0x8A89, size: 0x8, addend: 0x0, symName: __ZNSt3__19make_pairB8ne180100IRPKxPxEENS_4pairINS_18__unwrap_ref_decayIT_E4typeENS6_IT0_E4typeEEEOS7_OSA_, symObjAddr: 0x49AC, symBinAddr: 0x1000053CC, symSize: 0x38 }
  - { offsetInCU: 0x8AD8, offset: 0x8AD8, size: 0x8, addend: 0x0, symName: __ZNSt3__113__rewrap_iterB8ne180100IPKxS2_NS_18__unwrap_iter_implIS2_Lb1EEEEET_S5_T0_, symObjAddr: 0x4AC4, symBinAddr: 0x1000054E4, symSize: 0x3C }
  - { offsetInCU: 0x8B2D, offset: 0x8B2D, size: 0x8, addend: 0x0, symName: __ZNSt3__130__uninitialized_allocator_copyB8ne180100INS_9allocatorINS_6vectorIxNS1_IxEEEEEEPKS4_S7_PS4_EET2_RT_T0_T1_S9_, symObjAddr: 0x4D54, symBinAddr: 0x100005774, symSize: 0x80 }
  - { offsetInCU: 0x8BCA, offset: 0x8BCA, size: 0x8, addend: 0x0, symName: __ZNSt3__114__unwrap_rangeB8ne180100IPKNS_6vectorIxNS_9allocatorIxEEEES6_EENS_4pairIT0_S8_EET_SA_, symObjAddr: 0x4DD4, symBinAddr: 0x1000057F4, symSize: 0x60 }
  - { offsetInCU: 0x8C16, offset: 0x8C16, size: 0x8, addend: 0x0, symName: __ZNSt3__135__uninitialized_allocator_copy_implB8ne180100INS_9allocatorINS_6vectorIxNS1_IxEEEEEEPKS4_S7_PS4_EET2_RT_T0_T1_S9_, symObjAddr: 0x4E34, symBinAddr: 0x100005854, symSize: 0xF4 }
  - { offsetInCU: 0x8CB4, offset: 0x8CB4, size: 0x8, addend: 0x0, symName: __ZNSt3__19make_pairB8ne180100IPKNS_6vectorIxNS_9allocatorIxEEEES6_EENS_4pairINS_18__unwrap_ref_decayIT_E4typeENS8_IT0_E4typeEEEOS9_OSC_, symObjAddr: 0x4F28, symBinAddr: 0x100005948, symSize: 0x38 }
  - { offsetInCU: 0x8D03, offset: 0x8D03, size: 0x8, addend: 0x0, symName: __ZNSt3__113__unwrap_iterB8ne180100IPKNS_6vectorIxNS_9allocatorIxEEEENS_18__unwrap_iter_implIS6_Lb1EEELi0EEEDTclsrT0_8__unwrapclsr3stdE7declvalIT_EEEESA_, symObjAddr: 0x4F60, symBinAddr: 0x100005980, symSize: 0x24 }
  - { offsetInCU: 0x8E6E, offset: 0x8E6E, size: 0x8, addend: 0x0, symName: __ZNSt3__112__to_addressB8ne180100IKNS_6vectorIxNS_9allocatorIxEEEEEEPT_S7_, symObjAddr: 0x5018, symBinAddr: 0x100005A38, symSize: 0x14 }
  - { offsetInCU: 0x8EA3, offset: 0x8EA3, size: 0x8, addend: 0x0, symName: __ZNSt3__122__make_exception_guardB8ne180100INS_6vectorIiNS_9allocatorIiEEE16__destroy_vectorEEENS_28__exception_guard_exceptionsIT_EES7_, symObjAddr: 0x5188, symBinAddr: 0x100005BA8, symSize: 0x40 }
  - { offsetInCU: 0x8ED8, offset: 0x8ED8, size: 0x8, addend: 0x0, symName: __ZNSt3__119__allocate_at_leastB8ne180100INS_9allocatorIiEEEENS_19__allocation_resultINS_16allocator_traitsIT_E7pointerEEERS5_m, symObjAddr: 0x5588, symBinAddr: 0x100005FA8, symSize: 0x40 }
  - { offsetInCU: 0x8F1B, offset: 0x8F1B, size: 0x8, addend: 0x0, symName: __ZNSt3__130__uninitialized_allocator_copyB8ne180100INS_9allocatorIiEEPKiS4_PiEET2_RT_T0_T1_S6_, symObjAddr: 0x57C8, symBinAddr: 0x1000061E8, symSize: 0x80 }
  - { offsetInCU: 0x8FB8, offset: 0x8FB8, size: 0x8, addend: 0x0, symName: __ZNSt3__114__unwrap_rangeB8ne180100IPKiS2_EENS_4pairIT0_S4_EET_S6_, symObjAddr: 0x58B8, symBinAddr: 0x1000062D8, symSize: 0x60 }
  - { offsetInCU: 0x9004, offset: 0x9004, size: 0x8, addend: 0x0, symName: __ZNSt3__135__uninitialized_allocator_copy_implB8ne180100INS_9allocatorIiEEKiiiLPv0EEEPT2_RT_PT0_SA_S6_, symObjAddr: 0x5918, symBinAddr: 0x100006338, symSize: 0x38 }
  - { offsetInCU: 0x9085, offset: 0x9085, size: 0x8, addend: 0x0, symName: __ZNSt3__113__unwrap_iterB8ne180100IPiNS_18__unwrap_iter_implIS1_Lb1EEELi0EEEDTclsrT0_8__unwrapclsr3stdE7declvalIT_EEEES5_, symObjAddr: 0x5950, symBinAddr: 0x100006370, symSize: 0x24 }
  - { offsetInCU: 0x90C9, offset: 0x90C9, size: 0x8, addend: 0x0, symName: __ZNSt3__113__rewrap_iterB8ne180100IPiS1_NS_18__unwrap_iter_implIS1_Lb1EEEEET_S4_T0_, symObjAddr: 0x5974, symBinAddr: 0x100006394, symSize: 0x3C }
  - { offsetInCU: 0x911E, offset: 0x911E, size: 0x8, addend: 0x0, symName: __ZNSt3__19make_pairB8ne180100IPKiS2_EENS_4pairINS_18__unwrap_ref_decayIT_E4typeENS4_IT0_E4typeEEEOS5_OS8_, symObjAddr: 0x59B0, symBinAddr: 0x1000063D0, symSize: 0x38 }
  - { offsetInCU: 0x916D, offset: 0x916D, size: 0x8, addend: 0x0, symName: __ZNSt3__113__unwrap_iterB8ne180100IPKiNS_18__unwrap_iter_implIS2_Lb1EEELi0EEEDTclsrT0_8__unwrapclsr3stdE7declvalIT_EEEES6_, symObjAddr: 0x59E8, symBinAddr: 0x100006408, symSize: 0x24 }
  - { offsetInCU: 0x92D8, offset: 0x92D8, size: 0x8, addend: 0x0, symName: __ZNSt3__112__to_addressB8ne180100IKiEEPT_S3_, symObjAddr: 0x5AA0, symBinAddr: 0x1000064C0, symSize: 0x14 }
  - { offsetInCU: 0x930D, offset: 0x930D, size: 0x8, addend: 0x0, symName: __ZNSt3__14copyB8ne180100IPKiPiEET0_T_S5_S4_, symObjAddr: 0x5AB4, symBinAddr: 0x1000064D4, symSize: 0x40 }
  - { offsetInCU: 0x9367, offset: 0x9367, size: 0x8, addend: 0x0, symName: __ZNSt3__16__copyB8ne180100INS_17_ClassicAlgPolicyEPKiS3_PiEENS_4pairIT0_T2_EES6_T1_S7_, symObjAddr: 0x5AF4, symBinAddr: 0x100006514, symSize: 0x44 }
  - { offsetInCU: 0x93D3, offset: 0x93D3, size: 0x8, addend: 0x0, symName: __ZNSt3__123__dispatch_copy_or_moveB8ne180100INS_17_ClassicAlgPolicyENS_11__copy_loopIS1_EENS_14__copy_trivialEPKiS6_PiEENS_4pairIT2_T4_EES9_T3_SA_, symObjAddr: 0x5B38, symBinAddr: 0x100006558, symSize: 0x44 }
  - { offsetInCU: 0x9451, offset: 0x9451, size: 0x8, addend: 0x0, symName: __ZNSt3__121__unwrap_and_dispatchB8ne180100INS_10__overloadINS_11__copy_loopINS_17_ClassicAlgPolicyEEENS_14__copy_trivialEEEPKiS8_PiLi0EEENS_4pairIT0_T2_EESB_T1_SC_, symObjAddr: 0x5B7C, symBinAddr: 0x10000659C, symSize: 0xB4 }
  - { offsetInCU: 0x95E2, offset: 0x95E2, size: 0x8, addend: 0x0, symName: __ZNSt3__19make_pairB8ne180100IPKiPiEENS_4pairINS_18__unwrap_ref_decayIT_E4typeENS5_IT0_E4typeEEEOS6_OS9_, symObjAddr: 0x5C78, symBinAddr: 0x100006698, symSize: 0x38 }
  - { offsetInCU: 0x9631, offset: 0x9631, size: 0x8, addend: 0x0, symName: __ZNSt3__114__rewrap_rangeB8ne180100IPKiS2_EET_S3_T0_, symObjAddr: 0x5CB0, symBinAddr: 0x1000066D0, symSize: 0x2C }
  - { offsetInCU: 0x967D, offset: 0x967D, size: 0x8, addend: 0x0, symName: __ZNSt3__119__copy_trivial_implB8ne180100IKiiEENS_4pairIPT_PT0_EES4_S4_S6_, symObjAddr: 0x5CDC, symBinAddr: 0x1000066FC, symSize: 0x80 }
  - { offsetInCU: 0x96E5, offset: 0x96E5, size: 0x8, addend: 0x0, symName: __ZNSt3__119__constexpr_memmoveB8ne180100IiKiLi0EEEPT_S3_PT0_NS_15__element_countE, symObjAddr: 0x5D5C, symBinAddr: 0x10000677C, symSize: 0x64 }
  - { offsetInCU: 0x9753, offset: 0x9753, size: 0x8, addend: 0x0, symName: __ZNSt3__19make_pairB8ne180100IRPKiPiEENS_4pairINS_18__unwrap_ref_decayIT_E4typeENS6_IT0_E4typeEEEOS7_OSA_, symObjAddr: 0x5DC0, symBinAddr: 0x1000067E0, symSize: 0x38 }
  - { offsetInCU: 0x97A2, offset: 0x97A2, size: 0x8, addend: 0x0, symName: __ZNSt3__113__rewrap_iterB8ne180100IPKiS2_NS_18__unwrap_iter_implIS2_Lb1EEEEET_S5_T0_, symObjAddr: 0x5ED8, symBinAddr: 0x1000068F8, symSize: 0x3C }
  - { offsetInCU: 0x984A, offset: 0x984A, size: 0x8, addend: 0x0, symName: __ZNSt3__112__to_addressB8ne180100IiEEPT_S2_, symObjAddr: 0x5F88, symBinAddr: 0x1000069A8, symSize: 0x14 }
  - { offsetInCU: 0x987F, offset: 0x987F, size: 0x8, addend: 0x0, symName: __ZNSt3__130__uninitialized_allocator_copyB8ne180100INS_9allocatorIiEEPiS3_S3_EET2_RT_T0_T1_S4_, symObjAddr: 0x65C4, symBinAddr: 0x100006FE4, symSize: 0x80 }
  - { offsetInCU: 0x991C, offset: 0x991C, size: 0x8, addend: 0x0, symName: __ZNSt3__114__unwrap_rangeB8ne180100IPiS1_EENS_4pairIT0_S3_EET_S5_, symObjAddr: 0x6644, symBinAddr: 0x100007064, symSize: 0x60 }
  - { offsetInCU: 0x9968, offset: 0x9968, size: 0x8, addend: 0x0, symName: __ZNSt3__135__uninitialized_allocator_copy_implB8ne180100INS_9allocatorIiEEiiiLPv0EEEPT2_RT_PT0_S9_S5_, symObjAddr: 0x66A4, symBinAddr: 0x1000070C4, symSize: 0x38 }
  - { offsetInCU: 0x99E9, offset: 0x99E9, size: 0x8, addend: 0x0, symName: __ZNSt3__19make_pairB8ne180100IPiS1_EENS_4pairINS_18__unwrap_ref_decayIT_E4typeENS3_IT0_E4typeEEEOS4_OS7_, symObjAddr: 0x66DC, symBinAddr: 0x1000070FC, symSize: 0x38 }
  - { offsetInCU: 0x9B3B, offset: 0x9B3B, size: 0x8, addend: 0x0, symName: __ZNSt3__14copyB8ne180100IPiS1_EET0_T_S3_S2_, symObjAddr: 0x6784, symBinAddr: 0x1000071A4, symSize: 0x40 }
  - { offsetInCU: 0x9B95, offset: 0x9B95, size: 0x8, addend: 0x0, symName: __ZNSt3__16__copyB8ne180100INS_17_ClassicAlgPolicyEPiS2_S2_EENS_4pairIT0_T2_EES4_T1_S5_, symObjAddr: 0x67C4, symBinAddr: 0x1000071E4, symSize: 0x44 }
  - { offsetInCU: 0x9C01, offset: 0x9C01, size: 0x8, addend: 0x0, symName: __ZNSt3__123__dispatch_copy_or_moveB8ne180100INS_17_ClassicAlgPolicyENS_11__copy_loopIS1_EENS_14__copy_trivialEPiS5_S5_EENS_4pairIT2_T4_EES7_T3_S8_, symObjAddr: 0x6808, symBinAddr: 0x100007228, symSize: 0x44 }
  - { offsetInCU: 0x9C7F, offset: 0x9C7F, size: 0x8, addend: 0x0, symName: __ZNSt3__121__unwrap_and_dispatchB8ne180100INS_10__overloadINS_11__copy_loopINS_17_ClassicAlgPolicyEEENS_14__copy_trivialEEEPiS7_S7_Li0EEENS_4pairIT0_T2_EES9_T1_SA_, symObjAddr: 0x684C, symBinAddr: 0x10000726C, symSize: 0xB4 }
  - { offsetInCU: 0x9D0D, offset: 0x9D0D, size: 0x8, addend: 0x0, symName: __ZNSt3__114__rewrap_rangeB8ne180100IPiS1_EET_S2_T0_, symObjAddr: 0x6948, symBinAddr: 0x100007368, symSize: 0x2C }
  - { offsetInCU: 0x9D59, offset: 0x9D59, size: 0x8, addend: 0x0, symName: __ZNSt3__119__copy_trivial_implB8ne180100IiiEENS_4pairIPT_PT0_EES3_S3_S5_, symObjAddr: 0x6974, symBinAddr: 0x100007394, symSize: 0x80 }
  - { offsetInCU: 0x9DC1, offset: 0x9DC1, size: 0x8, addend: 0x0, symName: __ZNSt3__119__constexpr_memmoveB8ne180100IiiLi0EEEPT_S2_PT0_NS_15__element_countE, symObjAddr: 0x69F4, symBinAddr: 0x100007414, symSize: 0x64 }
  - { offsetInCU: 0x9E2F, offset: 0x9E2F, size: 0x8, addend: 0x0, symName: __ZNSt3__19make_pairB8ne180100IRPiS1_EENS_4pairINS_18__unwrap_ref_decayIT_E4typeENS4_IT0_E4typeEEEOS5_OS8_, symObjAddr: 0x6A58, symBinAddr: 0x100007478, symSize: 0x38 }
  - { offsetInCU: 0xA320, offset: 0xA320, size: 0x8, addend: 0x0, symName: __ZSt28__throw_bad_array_new_lengthB8ne180100v, symObjAddr: 0x1294, symBinAddr: 0x100001CB4, symSize: 0x34 }
  - { offsetInCU: 0xCB50, offset: 0xCB50, size: 0x8, addend: 0x0, symName: __Z14matrix_mul_modRNSt3__16vectorINS0_IxNS_9allocatorIxEEEENS1_IS3_EEEES6_l, symObjAddr: 0x0, symBinAddr: 0x100000A20, symSize: 0x1EC }
  - { offsetInCU: 0xCBE7, offset: 0xCBE7, size: 0x8, addend: 0x0, symName: __ZNSt3__16vectorIxNS_9allocatorIxEEEC1EmRKx, symObjAddr: 0x1EC, symBinAddr: 0x100000C0C, symSize: 0x3C }
  - { offsetInCU: 0xCC2F, offset: 0xCC2F, size: 0x8, addend: 0x0, symName: __ZNSt3__16vectorINS0_IxNS_9allocatorIxEEEENS1_IS3_EEEC1EmRKS3_, symObjAddr: 0x228, symBinAddr: 0x100000C48, symSize: 0x3C }
  - { offsetInCU: 0xCC77, offset: 0xCC77, size: 0x8, addend: 0x0, symName: __ZNSt3__16vectorIxNS_9allocatorIxEEED1B8ne180100Ev, symObjAddr: 0x264, symBinAddr: 0x100000C84, symSize: 0x2C }
  - { offsetInCU: 0xCC9F, offset: 0xCC9F, size: 0x8, addend: 0x0, symName: __ZNSt3__16vectorINS0_IxNS_9allocatorIxEEEENS1_IS3_EEEixB8ne180100Em, symObjAddr: 0x290, symBinAddr: 0x100000CB0, symSize: 0x2C }
  - { offsetInCU: 0xCCD4, offset: 0xCCD4, size: 0x8, addend: 0x0, symName: __ZNSt3__16vectorIxNS_9allocatorIxEEEixB8ne180100Em, symObjAddr: 0x2BC, symBinAddr: 0x100000CDC, symSize: 0x24 }
  - { offsetInCU: 0xCD09, offset: 0xCD09, size: 0x8, addend: 0x0, symName: __ZNSt3__16vectorINS0_IxNS_9allocatorIxEEEENS1_IS3_EEEaSB8ne180100ERKS5_, symObjAddr: 0x2E0, symBinAddr: 0x100000D00, symSize: 0x68 }
  - { offsetInCU: 0xCD3E, offset: 0xCD3E, size: 0x8, addend: 0x0, symName: __ZNSt3__16vectorINS0_IxNS_9allocatorIxEEEENS1_IS3_EEED1B8ne180100Ev, symObjAddr: 0x348, symBinAddr: 0x100000D68, symSize: 0x2C }
  - { offsetInCU: 0xCD66, offset: 0xCD66, size: 0x8, addend: 0x0, symName: __Z20fibonacci_matrix_mulNSt3__16vectorIiNS_9allocatorIiEEEEi, symObjAddr: 0x374, symBinAddr: 0x100000D94, symSize: 0x444 }
  - { offsetInCU: 0xCDDF, offset: 0xCDDF, size: 0x8, addend: 0x0, symName: __ZNSt3__16vectorIxNS_9allocatorIxEEEC1B8ne180100ESt16initializer_listIxE, symObjAddr: 0x7B8, symBinAddr: 0x1000011D8, symSize: 0x3C }
  - { offsetInCU: 0xCE18, offset: 0xCE18, size: 0x8, addend: 0x0, symName: __ZNSt3__16vectorINS0_IxNS_9allocatorIxEEEENS1_IS3_EEEC1B8ne180100ESt16initializer_listIS3_E, symObjAddr: 0x7F4, symBinAddr: 0x100001214, symSize: 0x3C }
  - { offsetInCU: 0xCE51, offset: 0xCE51, size: 0x8, addend: 0x0, symName: __ZNKSt3__16vectorIiNS_9allocatorIiEEE4sizeB8ne180100Ev, symObjAddr: 0x830, symBinAddr: 0x100001250, symSize: 0x28 }
  - { offsetInCU: 0xCE75, offset: 0xCE75, size: 0x8, addend: 0x0, symName: __ZNSt3__16vectorIiNS_9allocatorIiEEEixB8ne180100Em, symObjAddr: 0x858, symBinAddr: 0x100001278, symSize: 0x24 }
  - { offsetInCU: 0xCEAA, offset: 0xCEAA, size: 0x8, addend: 0x0, symName: _main, symObjAddr: 0x87C, symBinAddr: 0x10000129C, symSize: 0x11C }
  - { offsetInCU: 0xCEE2, offset: 0xCEE2, size: 0x8, addend: 0x0, symName: __ZNSt3__16vectorIiNS_9allocatorIiEEEC1B8ne180100ESt16initializer_listIiE, symObjAddr: 0x998, symBinAddr: 0x1000013B8, symSize: 0x3C }
  - { offsetInCU: 0xCF1B, offset: 0xCF1B, size: 0x8, addend: 0x0, symName: __ZNSt3__16vectorIiNS_9allocatorIiEEEC1ERKS3_, symObjAddr: 0x9D4, symBinAddr: 0x1000013F4, symSize: 0x34 }
  - { offsetInCU: 0xCF54, offset: 0xCF54, size: 0x8, addend: 0x0, symName: __ZNSt3__16vectorIiNS_9allocatorIiEEED1B8ne180100Ev, symObjAddr: 0xA08, symBinAddr: 0x100001428, symSize: 0x2C }
  - { offsetInCU: 0xCF7C, offset: 0xCF7C, size: 0x8, addend: 0x0, symName: __ZNSt3__16vectorIxNS_9allocatorIxEEEC2EmRKx, symObjAddr: 0xA34, symBinAddr: 0x100001454, symSize: 0xDC }
  - { offsetInCU: 0xCFE3, offset: 0xCFE3, size: 0x8, addend: 0x0, symName: __ZNSt3__117__compressed_pairIPxNS_9allocatorIxEEEC1B8ne180100IDnNS_18__default_init_tagEEEOT_OT0_, symObjAddr: 0xB10, symBinAddr: 0x100001530, symSize: 0x3C }
  - { offsetInCU: 0xD039, offset: 0xD039, size: 0x8, addend: 0x0, symName: __ZNSt3__16vectorIxNS_9allocatorIxEEE16__destroy_vectorC1B8ne180100ERS3_, symObjAddr: 0xB8C, symBinAddr: 0x1000015AC, symSize: 0x34 }
  - { offsetInCU: 0xD070, offset: 0xD070, size: 0x8, addend: 0x0, symName: __ZNSt3__16vectorIxNS_9allocatorIxEEE11__vallocateB8ne180100Em, symObjAddr: 0xBC0, symBinAddr: 0x1000015E0, symSize: 0xAC }
  - { offsetInCU: 0xD0B2, offset: 0xD0B2, size: 0x8, addend: 0x0, symName: __ZNSt3__16vectorIxNS_9allocatorIxEEE18__construct_at_endEmRKx, symObjAddr: 0xC6C, symBinAddr: 0x10000168C, symSize: 0xD0 }
  - { offsetInCU: 0xD131, offset: 0xD131, size: 0x8, addend: 0x0, symName: __ZNSt3__128__exception_guard_exceptionsINS_6vectorIxNS_9allocatorIxEEE16__destroy_vectorEE10__completeB8ne180100Ev, symObjAddr: 0xD3C, symBinAddr: 0x10000175C, symSize: 0x1C }
  - { offsetInCU: 0xD155, offset: 0xD155, size: 0x8, addend: 0x0, symName: __ZNSt3__128__exception_guard_exceptionsINS_6vectorIxNS_9allocatorIxEEE16__destroy_vectorEED1B8ne180100Ev, symObjAddr: 0xD58, symBinAddr: 0x100001778, symSize: 0x2C }
  - { offsetInCU: 0xD17D, offset: 0xD17D, size: 0x8, addend: 0x0, symName: __ZNSt3__117__compressed_pairIPxNS_9allocatorIxEEEC2B8ne180100IDnNS_18__default_init_tagEEEOT_OT0_, symObjAddr: 0xD84, symBinAddr: 0x1000017A4, symSize: 0x40 }
  - { offsetInCU: 0xD1D4, offset: 0xD1D4, size: 0x8, addend: 0x0, symName: __ZNSt3__122__compressed_pair_elemIPxLi0ELb0EEC2B8ne180100IDnvEEOT_, symObjAddr: 0xDC4, symBinAddr: 0x1000017E4, symSize: 0x1C }
  - { offsetInCU: 0xD213, offset: 0xD213, size: 0x8, addend: 0x0, symName: __ZNSt3__122__compressed_pair_elemINS_9allocatorIxEELi1ELb1EEC2B8ne180100ENS_18__default_init_tagE, symObjAddr: 0xDE0, symBinAddr: 0x100001800, symSize: 0x2C }
  - { offsetInCU: 0xD245, offset: 0xD245, size: 0x8, addend: 0x0, symName: __ZNSt3__19allocatorIxEC2B8ne180100Ev, symObjAddr: 0xE0C, symBinAddr: 0x10000182C, symSize: 0x2C }
  - { offsetInCU: 0xD26E, offset: 0xD26E, size: 0x8, addend: 0x0, symName: __ZNSt3__116__non_trivial_ifILb1ENS_9allocatorIxEEEC2B8ne180100Ev, symObjAddr: 0xE38, symBinAddr: 0x100001858, symSize: 0x14 }
  - { offsetInCU: 0xD295, offset: 0xD295, size: 0x8, addend: 0x0, symName: __ZNSt3__128__exception_guard_exceptionsINS_6vectorIxNS_9allocatorIxEEE16__destroy_vectorEEC1B8ne180100ES5_, symObjAddr: 0xE4C, symBinAddr: 0x10000186C, symSize: 0x34 }
  - { offsetInCU: 0xD2CC, offset: 0xD2CC, size: 0x8, addend: 0x0, symName: __ZNSt3__128__exception_guard_exceptionsINS_6vectorIxNS_9allocatorIxEEE16__destroy_vectorEEC2B8ne180100ES5_, symObjAddr: 0xE80, symBinAddr: 0x1000018A0, symSize: 0x24 }
  - { offsetInCU: 0xD302, offset: 0xD302, size: 0x8, addend: 0x0, symName: __ZNSt3__16vectorIxNS_9allocatorIxEEE16__destroy_vectorC2B8ne180100ERS3_, symObjAddr: 0xEA4, symBinAddr: 0x1000018C4, symSize: 0x20 }
  - { offsetInCU: 0xD338, offset: 0xD338, size: 0x8, addend: 0x0, symName: __ZNKSt3__16vectorIxNS_9allocatorIxEEE8max_sizeEv, symObjAddr: 0xEC4, symBinAddr: 0x1000018E4, symSize: 0x60 }
  - { offsetInCU: 0xD35E, offset: 0xD35E, size: 0x8, addend: 0x0, symName: __ZNKSt3__16vectorIxNS_9allocatorIxEEE20__throw_length_errorB8ne180100Ev, symObjAddr: 0xF24, symBinAddr: 0x100001944, symSize: 0x1C }
  - { offsetInCU: 0xD382, offset: 0xD382, size: 0x8, addend: 0x0, symName: __ZNSt3__16vectorIxNS_9allocatorIxEEE7__allocB8ne180100Ev, symObjAddr: 0xF80, symBinAddr: 0x1000019A0, symSize: 0x28 }
  - { offsetInCU: 0xD3A6, offset: 0xD3A6, size: 0x8, addend: 0x0, symName: __ZNSt3__16vectorIxNS_9allocatorIxEEE9__end_capB8ne180100Ev, symObjAddr: 0xFA8, symBinAddr: 0x1000019C8, symSize: 0x28 }
  - { offsetInCU: 0xD3CA, offset: 0xD3CA, size: 0x8, addend: 0x0, symName: __ZNKSt3__16vectorIxNS_9allocatorIxEEE14__annotate_newB8ne180100Em, symObjAddr: 0xFD0, symBinAddr: 0x1000019F0, symSize: 0x14 }
  - { offsetInCU: 0xD408, offset: 0xD408, size: 0x8, addend: 0x0, symName: __ZNSt3__116allocator_traitsINS_9allocatorIxEEE8max_sizeB8ne180100IS2_vEEmRKS2_, symObjAddr: 0x1010, symBinAddr: 0x100001A30, symSize: 0x24 }
  - { offsetInCU: 0xD435, offset: 0xD435, size: 0x8, addend: 0x0, symName: __ZNKSt3__16vectorIxNS_9allocatorIxEEE7__allocB8ne180100Ev, symObjAddr: 0x1034, symBinAddr: 0x100001A54, symSize: 0x28 }
  - { offsetInCU: 0xD45A, offset: 0xD45A, size: 0x8, addend: 0x0, symName: __ZNSt3__114numeric_limitsIlE3maxB8ne180100Ev, symObjAddr: 0x105C, symBinAddr: 0x100001A7C, symSize: 0x14 }
  - { offsetInCU: 0xD481, offset: 0xD481, size: 0x8, addend: 0x0, symName: __ZNKSt3__16__lessIvvEclB8ne180100ImmEEbRKT_RKT0_, symObjAddr: 0x10D0, symBinAddr: 0x100001AF0, symSize: 0x34 }
  - { offsetInCU: 0xD4D3, offset: 0xD4D3, size: 0x8, addend: 0x0, symName: __ZNKSt3__19allocatorIxE8max_sizeB8ne180100Ev, symObjAddr: 0x1104, symBinAddr: 0x100001B24, symSize: 0x14 }
  - { offsetInCU: 0xD4F7, offset: 0xD4F7, size: 0x8, addend: 0x0, symName: __ZNKSt3__117__compressed_pairIPxNS_9allocatorIxEEE6secondB8ne180100Ev, symObjAddr: 0x1118, symBinAddr: 0x100001B38, symSize: 0x24 }
  - { offsetInCU: 0xD51B, offset: 0xD51B, size: 0x8, addend: 0x0, symName: __ZNKSt3__122__compressed_pair_elemINS_9allocatorIxEELi1ELb1EE5__getB8ne180100Ev, symObjAddr: 0x113C, symBinAddr: 0x100001B5C, symSize: 0x14 }
  - { offsetInCU: 0xD540, offset: 0xD540, size: 0x8, addend: 0x0, symName: __ZNSt3__123__libcpp_numeric_limitsIlLb1EE3maxB8ne180100Ev, symObjAddr: 0x1150, symBinAddr: 0x100001B70, symSize: 0x8 }
  - { offsetInCU: 0xD553, offset: 0xD553, size: 0x8, addend: 0x0, symName: __ZNSt12length_errorC1B8ne180100EPKc, symObjAddr: 0x11BC, symBinAddr: 0x100001BDC, symSize: 0x34 }
  - { offsetInCU: 0xD589, offset: 0xD589, size: 0x8, addend: 0x0, symName: __ZNSt12length_errorC2B8ne180100EPKc, symObjAddr: 0x11F0, symBinAddr: 0x100001C10, symSize: 0x4C }
  - { offsetInCU: 0xD5BF, offset: 0xD5BF, size: 0x8, addend: 0x0, symName: __ZNSt3__19allocatorIxE8allocateB8ne180100Em, symObjAddr: 0x123C, symBinAddr: 0x100001C5C, symSize: 0x58 }
  - { offsetInCU: 0xD5F1, offset: 0xD5F1, size: 0x8, addend: 0x0, symName: __ZNSt3__117__compressed_pairIPxNS_9allocatorIxEEE6secondB8ne180100Ev, symObjAddr: 0x1314, symBinAddr: 0x100001D34, symSize: 0x24 }
  - { offsetInCU: 0xD615, offset: 0xD615, size: 0x8, addend: 0x0, symName: __ZNSt3__122__compressed_pair_elemINS_9allocatorIxEELi1ELb1EE5__getB8ne180100Ev, symObjAddr: 0x1338, symBinAddr: 0x100001D58, symSize: 0x14 }
  - { offsetInCU: 0xD639, offset: 0xD639, size: 0x8, addend: 0x0, symName: __ZNSt3__117__compressed_pairIPxNS_9allocatorIxEEE5firstB8ne180100Ev, symObjAddr: 0x134C, symBinAddr: 0x100001D6C, symSize: 0x24 }
  - { offsetInCU: 0xD65D, offset: 0xD65D, size: 0x8, addend: 0x0, symName: __ZNSt3__122__compressed_pair_elemIPxLi0ELb0EE5__getB8ne180100Ev, symObjAddr: 0x1370, symBinAddr: 0x100001D90, symSize: 0x14 }
  - { offsetInCU: 0xD69A, offset: 0xD69A, size: 0x8, addend: 0x0, symName: __ZNSt3__16vectorIxNS_9allocatorIxEEE21_ConstructTransactionC1B8ne180100ERS3_m, symObjAddr: 0x1384, symBinAddr: 0x100001DA4, symSize: 0x3C }
  - { offsetInCU: 0xD6E1, offset: 0xD6E1, size: 0x8, addend: 0x0, symName: __ZNSt3__116allocator_traitsINS_9allocatorIxEEE9constructB8ne180100IxJRKxEvEEvRS2_PT_DpOT0_, symObjAddr: 0x13C0, symBinAddr: 0x100001DE0, symSize: 0x34 }
  - { offsetInCU: 0xD737, offset: 0xD737, size: 0x8, addend: 0x0, symName: __ZNSt3__16vectorIxNS_9allocatorIxEEE21_ConstructTransactionD1B8ne180100Ev, symObjAddr: 0x1408, symBinAddr: 0x100001E28, symSize: 0x2C }
  - { offsetInCU: 0xD760, offset: 0xD760, size: 0x8, addend: 0x0, symName: __ZNSt3__16vectorIxNS_9allocatorIxEEE21_ConstructTransactionC2B8ne180100ERS3_m, symObjAddr: 0x1434, symBinAddr: 0x100001E54, symSize: 0x44 }
  - { offsetInCU: 0xD7A5, offset: 0xD7A5, size: 0x8, addend: 0x0, symName: __ZNSt3__19allocatorIxE9constructB8ne180100IxJRKxEEEvPT_DpOT0_, symObjAddr: 0x1478, symBinAddr: 0x100001E98, symSize: 0x28 }
  - { offsetInCU: 0xD7FA, offset: 0xD7FA, size: 0x8, addend: 0x0, symName: __ZNSt3__16vectorIxNS_9allocatorIxEEE21_ConstructTransactionD2B8ne180100Ev, symObjAddr: 0x14A0, symBinAddr: 0x100001EC0, symSize: 0x20 }
  - { offsetInCU: 0xD821, offset: 0xD821, size: 0x8, addend: 0x0, symName: __ZNSt3__128__exception_guard_exceptionsINS_6vectorIxNS_9allocatorIxEEE16__destroy_vectorEED2B8ne180100Ev, symObjAddr: 0x14C0, symBinAddr: 0x100001EE0, symSize: 0x50 }
  - { offsetInCU: 0xD849, offset: 0xD849, size: 0x8, addend: 0x0, symName: __ZNSt3__16vectorIxNS_9allocatorIxEEE16__destroy_vectorclB8ne180100Ev, symObjAddr: 0x1510, symBinAddr: 0x100001F30, symSize: 0x90 }
  - { offsetInCU: 0xD86D, offset: 0xD86D, size: 0x8, addend: 0x0, symName: __ZNSt3__16vectorIxNS_9allocatorIxEEE7__clearB8ne180100Ev, symObjAddr: 0x15A0, symBinAddr: 0x100001FC0, symSize: 0x28 }
  - { offsetInCU: 0xD891, offset: 0xD891, size: 0x8, addend: 0x0, symName: __ZNKSt3__16vectorIxNS_9allocatorIxEEE17__annotate_deleteB8ne180100Ev, symObjAddr: 0x15C8, symBinAddr: 0x100001FE8, symSize: 0x10 }
  - { offsetInCU: 0xD8B6, offset: 0xD8B6, size: 0x8, addend: 0x0, symName: __ZNSt3__116allocator_traitsINS_9allocatorIxEEE10deallocateB8ne180100ERS2_Pxm, symObjAddr: 0x15D8, symBinAddr: 0x100001FF8, symSize: 0x34 }
  - { offsetInCU: 0xD8F7, offset: 0xD8F7, size: 0x8, addend: 0x0, symName: __ZNKSt3__16vectorIxNS_9allocatorIxEEE8capacityB8ne180100Ev, symObjAddr: 0x160C, symBinAddr: 0x10000202C, symSize: 0x40 }
  - { offsetInCU: 0xD91B, offset: 0xD91B, size: 0x8, addend: 0x0, symName: __ZNSt3__16vectorIxNS_9allocatorIxEEE22__base_destruct_at_endB8ne180100EPx, symObjAddr: 0x164C, symBinAddr: 0x10000206C, symSize: 0x8C }
  - { offsetInCU: 0xD95E, offset: 0xD95E, size: 0x8, addend: 0x0, symName: __ZNSt3__116allocator_traitsINS_9allocatorIxEEE7destroyB8ne180100IxvEEvRS2_PT_, symObjAddr: 0x16D8, symBinAddr: 0x1000020F8, symSize: 0x2C }
  - { offsetInCU: 0xD99A, offset: 0xD99A, size: 0x8, addend: 0x0, symName: __ZNSt3__19allocatorIxE7destroyB8ne180100EPx, symObjAddr: 0x1704, symBinAddr: 0x100002124, symSize: 0x14 }
  - { offsetInCU: 0xD9CC, offset: 0xD9CC, size: 0x8, addend: 0x0, symName: __ZNSt3__19allocatorIxE10deallocateB8ne180100EPxm, symObjAddr: 0x1718, symBinAddr: 0x100002138, symSize: 0x40 }
  - { offsetInCU: 0xDA0C, offset: 0xDA0C, size: 0x8, addend: 0x0, symName: __ZNKSt3__16vectorIxNS_9allocatorIxEEE9__end_capB8ne180100Ev, symObjAddr: 0x17D4, symBinAddr: 0x1000021F4, symSize: 0x28 }
  - { offsetInCU: 0xDA30, offset: 0xDA30, size: 0x8, addend: 0x0, symName: __ZNKSt3__117__compressed_pairIPxNS_9allocatorIxEEE5firstB8ne180100Ev, symObjAddr: 0x17FC, symBinAddr: 0x10000221C, symSize: 0x24 }
  - { offsetInCU: 0xDA54, offset: 0xDA54, size: 0x8, addend: 0x0, symName: __ZNKSt3__122__compressed_pair_elemIPxLi0ELb0EE5__getB8ne180100Ev, symObjAddr: 0x1820, symBinAddr: 0x100002240, symSize: 0x14 }
  - { offsetInCU: 0xDA78, offset: 0xDA78, size: 0x8, addend: 0x0, symName: __ZNSt3__16vectorIxNS_9allocatorIxEEED2B8ne180100Ev, symObjAddr: 0x1834, symBinAddr: 0x100002254, symSize: 0x40 }
  - { offsetInCU: 0xDAA0, offset: 0xDAA0, size: 0x8, addend: 0x0, symName: __ZNSt3__16vectorINS0_IxNS_9allocatorIxEEEENS1_IS3_EEEC2EmRKS3_, symObjAddr: 0x1874, symBinAddr: 0x100002294, symSize: 0xDC }
  - { offsetInCU: 0xDAFD, offset: 0xDAFD, size: 0x8, addend: 0x0, symName: __ZNSt3__117__compressed_pairIPNS_6vectorIxNS_9allocatorIxEEEENS2_IS4_EEEC1B8ne180100IDnNS_18__default_init_tagEEEOT_OT0_, symObjAddr: 0x1950, symBinAddr: 0x100002370, symSize: 0x3C }
  - { offsetInCU: 0xDB53, offset: 0xDB53, size: 0x8, addend: 0x0, symName: __ZNSt3__16vectorINS0_IxNS_9allocatorIxEEEENS1_IS3_EEE16__destroy_vectorC1B8ne180100ERS5_, symObjAddr: 0x19CC, symBinAddr: 0x1000023EC, symSize: 0x34 }
  - { offsetInCU: 0xDB8A, offset: 0xDB8A, size: 0x8, addend: 0x0, symName: __ZNSt3__16vectorINS0_IxNS_9allocatorIxEEEENS1_IS3_EEE11__vallocateB8ne180100Em, symObjAddr: 0x1A00, symBinAddr: 0x100002420, symSize: 0xB4 }
  - { offsetInCU: 0xDBCC, offset: 0xDBCC, size: 0x8, addend: 0x0, symName: __ZNSt3__16vectorINS0_IxNS_9allocatorIxEEEENS1_IS3_EEE18__construct_at_endEmRKS3_, symObjAddr: 0x1AB4, symBinAddr: 0x1000024D4, symSize: 0xD0 }
  - { offsetInCU: 0xDC4B, offset: 0xDC4B, size: 0x8, addend: 0x0, symName: __ZNSt3__128__exception_guard_exceptionsINS_6vectorINS1_IxNS_9allocatorIxEEEENS2_IS4_EEE16__destroy_vectorEE10__completeB8ne180100Ev, symObjAddr: 0x1B84, symBinAddr: 0x1000025A4, symSize: 0x1C }
  - { offsetInCU: 0xDC6F, offset: 0xDC6F, size: 0x8, addend: 0x0, symName: __ZNSt3__128__exception_guard_exceptionsINS_6vectorINS1_IxNS_9allocatorIxEEEENS2_IS4_EEE16__destroy_vectorEED1B8ne180100Ev, symObjAddr: 0x1BA0, symBinAddr: 0x1000025C0, symSize: 0x2C }
  - { offsetInCU: 0xDC97, offset: 0xDC97, size: 0x8, addend: 0x0, symName: __ZNSt3__117__compressed_pairIPNS_6vectorIxNS_9allocatorIxEEEENS2_IS4_EEEC2B8ne180100IDnNS_18__default_init_tagEEEOT_OT0_, symObjAddr: 0x1BCC, symBinAddr: 0x1000025EC, symSize: 0x40 }
  - { offsetInCU: 0xDCEE, offset: 0xDCEE, size: 0x8, addend: 0x0, symName: __ZNSt3__122__compressed_pair_elemIPNS_6vectorIxNS_9allocatorIxEEEELi0ELb0EEC2B8ne180100IDnvEEOT_, symObjAddr: 0x1C0C, symBinAddr: 0x10000262C, symSize: 0x1C }
  - { offsetInCU: 0xDD2D, offset: 0xDD2D, size: 0x8, addend: 0x0, symName: __ZNSt3__122__compressed_pair_elemINS_9allocatorINS_6vectorIxNS1_IxEEEEEELi1ELb1EEC2B8ne180100ENS_18__default_init_tagE, symObjAddr: 0x1C28, symBinAddr: 0x100002648, symSize: 0x2C }
  - { offsetInCU: 0xDD5F, offset: 0xDD5F, size: 0x8, addend: 0x0, symName: __ZNSt3__19allocatorINS_6vectorIxNS0_IxEEEEEC2B8ne180100Ev, symObjAddr: 0x1C54, symBinAddr: 0x100002674, symSize: 0x2C }
  - { offsetInCU: 0xDD88, offset: 0xDD88, size: 0x8, addend: 0x0, symName: __ZNSt3__116__non_trivial_ifILb1ENS_9allocatorINS_6vectorIxNS1_IxEEEEEEEC2B8ne180100Ev, symObjAddr: 0x1C80, symBinAddr: 0x1000026A0, symSize: 0x14 }
  - { offsetInCU: 0xDDAF, offset: 0xDDAF, size: 0x8, addend: 0x0, symName: __ZNSt3__128__exception_guard_exceptionsINS_6vectorINS1_IxNS_9allocatorIxEEEENS2_IS4_EEE16__destroy_vectorEEC1B8ne180100ES7_, symObjAddr: 0x1C94, symBinAddr: 0x1000026B4, symSize: 0x34 }
  - { offsetInCU: 0xDDE6, offset: 0xDDE6, size: 0x8, addend: 0x0, symName: __ZNSt3__128__exception_guard_exceptionsINS_6vectorINS1_IxNS_9allocatorIxEEEENS2_IS4_EEE16__destroy_vectorEEC2B8ne180100ES7_, symObjAddr: 0x1CC8, symBinAddr: 0x1000026E8, symSize: 0x24 }
  - { offsetInCU: 0xDE1C, offset: 0xDE1C, size: 0x8, addend: 0x0, symName: __ZNSt3__16vectorINS0_IxNS_9allocatorIxEEEENS1_IS3_EEE16__destroy_vectorC2B8ne180100ERS5_, symObjAddr: 0x1CEC, symBinAddr: 0x10000270C, symSize: 0x20 }
  - { offsetInCU: 0xDE52, offset: 0xDE52, size: 0x8, addend: 0x0, symName: __ZNKSt3__16vectorINS0_IxNS_9allocatorIxEEEENS1_IS3_EEE8max_sizeEv, symObjAddr: 0x1D0C, symBinAddr: 0x10000272C, symSize: 0x60 }
  - { offsetInCU: 0xDE78, offset: 0xDE78, size: 0x8, addend: 0x0, symName: __ZNKSt3__16vectorINS0_IxNS_9allocatorIxEEEENS1_IS3_EEE20__throw_length_errorB8ne180100Ev, symObjAddr: 0x1D6C, symBinAddr: 0x10000278C, symSize: 0x1C }
  - { offsetInCU: 0xDE9C, offset: 0xDE9C, size: 0x8, addend: 0x0, symName: __ZNSt3__16vectorINS0_IxNS_9allocatorIxEEEENS1_IS3_EEE7__allocB8ne180100Ev, symObjAddr: 0x1DC8, symBinAddr: 0x1000027E8, symSize: 0x28 }
  - { offsetInCU: 0xDEC0, offset: 0xDEC0, size: 0x8, addend: 0x0, symName: __ZNSt3__16vectorINS0_IxNS_9allocatorIxEEEENS1_IS3_EEE9__end_capB8ne180100Ev, symObjAddr: 0x1DF0, symBinAddr: 0x100002810, symSize: 0x28 }
  - { offsetInCU: 0xDEE4, offset: 0xDEE4, size: 0x8, addend: 0x0, symName: __ZNKSt3__16vectorINS0_IxNS_9allocatorIxEEEENS1_IS3_EEE14__annotate_newB8ne180100Em, symObjAddr: 0x1E18, symBinAddr: 0x100002838, symSize: 0x14 }
  - { offsetInCU: 0xDF22, offset: 0xDF22, size: 0x8, addend: 0x0, symName: __ZNSt3__116allocator_traitsINS_9allocatorINS_6vectorIxNS1_IxEEEEEEE8max_sizeB8ne180100IS5_vEEmRKS5_, symObjAddr: 0x1E2C, symBinAddr: 0x10000284C, symSize: 0x24 }
  - { offsetInCU: 0xDF4F, offset: 0xDF4F, size: 0x8, addend: 0x0, symName: __ZNKSt3__16vectorINS0_IxNS_9allocatorIxEEEENS1_IS3_EEE7__allocB8ne180100Ev, symObjAddr: 0x1E50, symBinAddr: 0x100002870, symSize: 0x28 }
  - { offsetInCU: 0xDF73, offset: 0xDF73, size: 0x8, addend: 0x0, symName: __ZNKSt3__19allocatorINS_6vectorIxNS0_IxEEEEE8max_sizeB8ne180100Ev, symObjAddr: 0x1E78, symBinAddr: 0x100002898, symSize: 0x18 }
  - { offsetInCU: 0xDF97, offset: 0xDF97, size: 0x8, addend: 0x0, symName: __ZNKSt3__117__compressed_pairIPNS_6vectorIxNS_9allocatorIxEEEENS2_IS4_EEE6secondB8ne180100Ev, symObjAddr: 0x1E90, symBinAddr: 0x1000028B0, symSize: 0x24 }
  - { offsetInCU: 0xDFBB, offset: 0xDFBB, size: 0x8, addend: 0x0, symName: __ZNKSt3__122__compressed_pair_elemINS_9allocatorINS_6vectorIxNS1_IxEEEEEELi1ELb1EE5__getB8ne180100Ev, symObjAddr: 0x1EB4, symBinAddr: 0x1000028D4, symSize: 0x14 }
  - { offsetInCU: 0xDFDF, offset: 0xDFDF, size: 0x8, addend: 0x0, symName: __ZNSt3__19allocatorINS_6vectorIxNS0_IxEEEEE8allocateB8ne180100Em, symObjAddr: 0x1EC8, symBinAddr: 0x1000028E8, symSize: 0x5C }
  - { offsetInCU: 0xE011, offset: 0xE011, size: 0x8, addend: 0x0, symName: __ZNSt3__117__compressed_pairIPNS_6vectorIxNS_9allocatorIxEEEENS2_IS4_EEE6secondB8ne180100Ev, symObjAddr: 0x1F24, symBinAddr: 0x100002944, symSize: 0x24 }
  - { offsetInCU: 0xE035, offset: 0xE035, size: 0x8, addend: 0x0, symName: __ZNSt3__122__compressed_pair_elemINS_9allocatorINS_6vectorIxNS1_IxEEEEEELi1ELb1EE5__getB8ne180100Ev, symObjAddr: 0x1F48, symBinAddr: 0x100002968, symSize: 0x14 }
  - { offsetInCU: 0xE059, offset: 0xE059, size: 0x8, addend: 0x0, symName: __ZNSt3__117__compressed_pairIPNS_6vectorIxNS_9allocatorIxEEEENS2_IS4_EEE5firstB8ne180100Ev, symObjAddr: 0x1F5C, symBinAddr: 0x10000297C, symSize: 0x24 }
  - { offsetInCU: 0xE07D, offset: 0xE07D, size: 0x8, addend: 0x0, symName: __ZNSt3__122__compressed_pair_elemIPNS_6vectorIxNS_9allocatorIxEEEELi0ELb0EE5__getB8ne180100Ev, symObjAddr: 0x1F80, symBinAddr: 0x1000029A0, symSize: 0x14 }
  - { offsetInCU: 0xE0BA, offset: 0xE0BA, size: 0x8, addend: 0x0, symName: __ZNSt3__16vectorINS0_IxNS_9allocatorIxEEEENS1_IS3_EEE21_ConstructTransactionC1B8ne180100ERS5_m, symObjAddr: 0x1F94, symBinAddr: 0x1000029B4, symSize: 0x3C }
  - { offsetInCU: 0xE101, offset: 0xE101, size: 0x8, addend: 0x0, symName: __ZNSt3__116allocator_traitsINS_9allocatorINS_6vectorIxNS1_IxEEEEEEE9constructB8ne180100IS4_JRKS4_EvEEvRS5_PT_DpOT0_, symObjAddr: 0x1FD0, symBinAddr: 0x1000029F0, symSize: 0x34 }
  - { offsetInCU: 0xE157, offset: 0xE157, size: 0x8, addend: 0x0, symName: __ZNSt3__16vectorINS0_IxNS_9allocatorIxEEEENS1_IS3_EEE21_ConstructTransactionD1B8ne180100Ev, symObjAddr: 0x2018, symBinAddr: 0x100002A38, symSize: 0x2C }
  - { offsetInCU: 0xE180, offset: 0xE180, size: 0x8, addend: 0x0, symName: __ZNSt3__16vectorINS0_IxNS_9allocatorIxEEEENS1_IS3_EEE21_ConstructTransactionC2B8ne180100ERS5_m, symObjAddr: 0x2044, symBinAddr: 0x100002A64, symSize: 0x4C }
  - { offsetInCU: 0xE1C5, offset: 0xE1C5, size: 0x8, addend: 0x0, symName: __ZNSt3__19allocatorINS_6vectorIxNS0_IxEEEEE9constructB8ne180100IS3_JRKS3_EEEvPT_DpOT0_, symObjAddr: 0x2090, symBinAddr: 0x100002AB0, symSize: 0x30 }
  - { offsetInCU: 0xE219, offset: 0xE219, size: 0x8, addend: 0x0, symName: __ZNSt3__16vectorIxNS_9allocatorIxEEEC1ERKS3_, symObjAddr: 0x20C0, symBinAddr: 0x100002AE0, symSize: 0x34 }
  - { offsetInCU: 0xE252, offset: 0xE252, size: 0x8, addend: 0x0, symName: __ZNSt3__16vectorIxNS_9allocatorIxEEEC2ERKS3_, symObjAddr: 0x20F4, symBinAddr: 0x100002B14, symSize: 0x94 }
  - { offsetInCU: 0xE28C, offset: 0xE28C, size: 0x8, addend: 0x0, symName: __ZNSt3__116allocator_traitsINS_9allocatorIxEEE37select_on_container_copy_constructionB8ne180100IS2_vvEES2_RKS2_, symObjAddr: 0x2188, symBinAddr: 0x100002BA8, symSize: 0x10 }
  - { offsetInCU: 0xE2BF, offset: 0xE2BF, size: 0x8, addend: 0x0, symName: __ZNSt3__117__compressed_pairIPxNS_9allocatorIxEEEC1B8ne180100IDnS3_EEOT_OT0_, symObjAddr: 0x2198, symBinAddr: 0x100002BB8, symSize: 0x3C }
  - { offsetInCU: 0xE315, offset: 0xE315, size: 0x8, addend: 0x0, symName: __ZNSt3__16vectorIxNS_9allocatorIxEEE16__init_with_sizeB8ne180100IPxS5_EEvT_T0_m, symObjAddr: 0x21D4, symBinAddr: 0x100002BF4, symSize: 0xB8 }
  - { offsetInCU: 0xE387, offset: 0xE387, size: 0x8, addend: 0x0, symName: __ZNKSt3__16vectorIxNS_9allocatorIxEEE4sizeB8ne180100Ev, symObjAddr: 0x228C, symBinAddr: 0x100002CAC, symSize: 0x28 }
  - { offsetInCU: 0xE3AB, offset: 0xE3AB, size: 0x8, addend: 0x0, symName: __ZNSt3__117__compressed_pairIPxNS_9allocatorIxEEEC2B8ne180100IDnS3_EEOT_OT0_, symObjAddr: 0x22B4, symBinAddr: 0x100002CD4, symSize: 0x44 }
  - { offsetInCU: 0xE402, offset: 0xE402, size: 0x8, addend: 0x0, symName: __ZNSt3__122__compressed_pair_elemINS_9allocatorIxEELi1ELb1EEC2B8ne180100IS2_vEEOT_, symObjAddr: 0x22F8, symBinAddr: 0x100002D18, symSize: 0x18 }
  - { offsetInCU: 0xE441, offset: 0xE441, size: 0x8, addend: 0x0, symName: __ZNSt3__16vectorIxNS_9allocatorIxEEE18__construct_at_endIPxS5_EEvT_T0_m, symObjAddr: 0x2310, symBinAddr: 0x100002D30, symSize: 0x8C }
  - { offsetInCU: 0xE4D3, offset: 0xE4D3, size: 0x8, addend: 0x0, symName: __ZNSt3__14pairIPxS1_EC1B8ne180100IS1_S1_Li0EEEOT_OT0_, symObjAddr: 0x254C, symBinAddr: 0x100002F6C, symSize: 0x3C }
  - { offsetInCU: 0xE530, offset: 0xE530, size: 0x8, addend: 0x0, symName: __ZNSt3__14pairIPxS1_EC2B8ne180100IS1_S1_Li0EEEOT_OT0_, symObjAddr: 0x2588, symBinAddr: 0x100002FA8, symSize: 0x34 }
  - { offsetInCU: 0xE595, offset: 0xE595, size: 0x8, addend: 0x0, symName: __ZNKSt3__114__copy_trivialclB8ne180100IxxLi0EEENS_4pairIPT_PT0_EES4_S4_S6_, symObjAddr: 0x2738, symBinAddr: 0x100003158, symSize: 0x48 }
  - { offsetInCU: 0xE5FB, offset: 0xE5FB, size: 0x8, addend: 0x0, symName: __ZNSt3__14pairIPxS1_EC1B8ne180100IRS1_S1_Li0EEEOT_OT0_, symObjAddr: 0x28C8, symBinAddr: 0x1000032E8, symSize: 0x3C }
  - { offsetInCU: 0xE658, offset: 0xE658, size: 0x8, addend: 0x0, symName: __ZNSt3__14pairIPxS1_EC2B8ne180100IRS1_S1_Li0EEEOT_OT0_, symObjAddr: 0x2904, symBinAddr: 0x100003324, symSize: 0x34 }
  - { offsetInCU: 0xE6B4, offset: 0xE6B4, size: 0x8, addend: 0x0, symName: __ZNSt3__118__unwrap_iter_implIPxLb1EE8__unwrapB8ne180100ES1_, symObjAddr: 0x2938, symBinAddr: 0x100003358, symSize: 0x24 }
  - { offsetInCU: 0xE6D7, offset: 0xE6D7, size: 0x8, addend: 0x0, symName: __ZNSt3__118__unwrap_iter_implIPxLb1EE8__rewrapB8ne180100ES1_S1_, symObjAddr: 0x295C, symBinAddr: 0x10000337C, symSize: 0x50 }
  - { offsetInCU: 0xE708, offset: 0xE708, size: 0x8, addend: 0x0, symName: __ZNSt3__16vectorINS0_IxNS_9allocatorIxEEEENS1_IS3_EEE21_ConstructTransactionD2B8ne180100Ev, symObjAddr: 0x29AC, symBinAddr: 0x1000033CC, symSize: 0x20 }
  - { offsetInCU: 0xE72F, offset: 0xE72F, size: 0x8, addend: 0x0, symName: __ZNSt3__128__exception_guard_exceptionsINS_6vectorINS1_IxNS_9allocatorIxEEEENS2_IS4_EEE16__destroy_vectorEED2B8ne180100Ev, symObjAddr: 0x29CC, symBinAddr: 0x1000033EC, symSize: 0x50 }
  - { offsetInCU: 0xE757, offset: 0xE757, size: 0x8, addend: 0x0, symName: __ZNSt3__16vectorINS0_IxNS_9allocatorIxEEEENS1_IS3_EEE16__destroy_vectorclB8ne180100Ev, symObjAddr: 0x2A1C, symBinAddr: 0x10000343C, symSize: 0x90 }
  - { offsetInCU: 0xE77B, offset: 0xE77B, size: 0x8, addend: 0x0, symName: __ZNSt3__16vectorINS0_IxNS_9allocatorIxEEEENS1_IS3_EEE7__clearB8ne180100Ev, symObjAddr: 0x2AAC, symBinAddr: 0x1000034CC, symSize: 0x28 }
  - { offsetInCU: 0xE79F, offset: 0xE79F, size: 0x8, addend: 0x0, symName: __ZNKSt3__16vectorINS0_IxNS_9allocatorIxEEEENS1_IS3_EEE17__annotate_deleteB8ne180100Ev, symObjAddr: 0x2AD4, symBinAddr: 0x1000034F4, symSize: 0x10 }
  - { offsetInCU: 0xE7C4, offset: 0xE7C4, size: 0x8, addend: 0x0, symName: __ZNSt3__116allocator_traitsINS_9allocatorINS_6vectorIxNS1_IxEEEEEEE10deallocateB8ne180100ERS5_PS4_m, symObjAddr: 0x2AE4, symBinAddr: 0x100003504, symSize: 0x34 }
  - { offsetInCU: 0xE805, offset: 0xE805, size: 0x8, addend: 0x0, symName: __ZNKSt3__16vectorINS0_IxNS_9allocatorIxEEEENS1_IS3_EEE8capacityB8ne180100Ev, symObjAddr: 0x2B18, symBinAddr: 0x100003538, symSize: 0x40 }
  - { offsetInCU: 0xE829, offset: 0xE829, size: 0x8, addend: 0x0, symName: __ZNSt3__16vectorINS0_IxNS_9allocatorIxEEEENS1_IS3_EEE22__base_destruct_at_endB8ne180100EPS3_, symObjAddr: 0x2B58, symBinAddr: 0x100003578, symSize: 0x8C }
  - { offsetInCU: 0xE86C, offset: 0xE86C, size: 0x8, addend: 0x0, symName: __ZNSt3__116allocator_traitsINS_9allocatorINS_6vectorIxNS1_IxEEEEEEE7destroyB8ne180100IS4_vEEvRS5_PT_, symObjAddr: 0x2BE4, symBinAddr: 0x100003604, symSize: 0x2C }
  - { offsetInCU: 0xE8A8, offset: 0xE8A8, size: 0x8, addend: 0x0, symName: __ZNSt3__19allocatorINS_6vectorIxNS0_IxEEEEE7destroyB8ne180100EPS3_, symObjAddr: 0x2C10, symBinAddr: 0x100003630, symSize: 0x28 }
  - { offsetInCU: 0xE8DA, offset: 0xE8DA, size: 0x8, addend: 0x0, symName: __ZNSt3__19allocatorINS_6vectorIxNS0_IxEEEEE10deallocateB8ne180100EPS3_m, symObjAddr: 0x2C38, symBinAddr: 0x100003658, symSize: 0x44 }
  - { offsetInCU: 0xE91A, offset: 0xE91A, size: 0x8, addend: 0x0, symName: __ZNKSt3__16vectorINS0_IxNS_9allocatorIxEEEENS1_IS3_EEE9__end_capB8ne180100Ev, symObjAddr: 0x2C7C, symBinAddr: 0x10000369C, symSize: 0x28 }
  - { offsetInCU: 0xE93E, offset: 0xE93E, size: 0x8, addend: 0x0, symName: __ZNKSt3__117__compressed_pairIPNS_6vectorIxNS_9allocatorIxEEEENS2_IS4_EEE5firstB8ne180100Ev, symObjAddr: 0x2CA4, symBinAddr: 0x1000036C4, symSize: 0x24 }
  - { offsetInCU: 0xE962, offset: 0xE962, size: 0x8, addend: 0x0, symName: __ZNKSt3__122__compressed_pair_elemIPNS_6vectorIxNS_9allocatorIxEEEELi0ELb0EE5__getB8ne180100Ev, symObjAddr: 0x2CC8, symBinAddr: 0x1000036E8, symSize: 0x14 }
  - { offsetInCU: 0xE986, offset: 0xE986, size: 0x8, addend: 0x0, symName: __ZNSt3__16vectorINS0_IxNS_9allocatorIxEEEENS1_IS3_EEED2B8ne180100Ev, symObjAddr: 0x2CDC, symBinAddr: 0x1000036FC, symSize: 0x40 }
  - { offsetInCU: 0xE9AE, offset: 0xE9AE, size: 0x8, addend: 0x0, symName: __ZNSt3__16vectorINS0_IxNS_9allocatorIxEEEENS1_IS3_EEE19__copy_assign_allocB8ne180100ERKS5_, symObjAddr: 0x2D1C, symBinAddr: 0x10000373C, symSize: 0x2C }
  - { offsetInCU: 0xE9E1, offset: 0xE9E1, size: 0x8, addend: 0x0, symName: __ZNSt3__16vectorINS0_IxNS_9allocatorIxEEEENS1_IS3_EEE6assignIPS3_Li0EEEvT_S8_, symObjAddr: 0x2D48, symBinAddr: 0x100003768, symSize: 0x5C }
  - { offsetInCU: 0xEA34, offset: 0xEA34, size: 0x8, addend: 0x0, symName: __ZNSt3__16vectorINS0_IxNS_9allocatorIxEEEENS1_IS3_EEE19__copy_assign_allocB8ne180100ERKS5_NS_17integral_constantIbLb0EEE, symObjAddr: 0x2DA4, symBinAddr: 0x1000037C4, symSize: 0x14 }
  - { offsetInCU: 0xEA6E, offset: 0xEA6E, size: 0x8, addend: 0x0, symName: __ZNSt3__16vectorINS0_IxNS_9allocatorIxEEEENS1_IS3_EEE18__assign_with_sizeB8ne180100IPS3_S7_EEvT_T0_l, symObjAddr: 0x2DB8, symBinAddr: 0x1000037D8, symSize: 0x164 }
  - { offsetInCU: 0xEB1C, offset: 0xEB1C, size: 0x8, addend: 0x0, symName: __ZNKSt3__16vectorINS0_IxNS_9allocatorIxEEEENS1_IS3_EEE4sizeB8ne180100Ev, symObjAddr: 0x2F48, symBinAddr: 0x100003968, symSize: 0x28 }
  - { offsetInCU: 0xEB40, offset: 0xEB40, size: 0x8, addend: 0x0, symName: __ZNSt3__16vectorINS0_IxNS_9allocatorIxEEEENS1_IS3_EEE18__construct_at_endIPS3_S7_EEvT_T0_m, symObjAddr: 0x2FE4, symBinAddr: 0x100003A04, symSize: 0x8C }
  - { offsetInCU: 0xEBB4, offset: 0xEBB4, size: 0x8, addend: 0x0, symName: __ZNSt3__16vectorINS0_IxNS_9allocatorIxEEEENS1_IS3_EEE17__destruct_at_endB8ne180100EPS3_, symObjAddr: 0x30B4, symBinAddr: 0x100003AD4, symSize: 0x4C }
  - { offsetInCU: 0xEBF6, offset: 0xEBF6, size: 0x8, addend: 0x0, symName: __ZNSt3__16vectorINS0_IxNS_9allocatorIxEEEENS1_IS3_EEE13__vdeallocateEv, symObjAddr: 0x3100, symBinAddr: 0x100003B20, symSize: 0x94 }
  - { offsetInCU: 0xEC1C, offset: 0xEC1C, size: 0x8, addend: 0x0, symName: __ZNKSt3__16vectorINS0_IxNS_9allocatorIxEEEENS1_IS3_EEE11__recommendB8ne180100Em, symObjAddr: 0x3194, symBinAddr: 0x100003BB4, symSize: 0xB4 }
  - { offsetInCU: 0xEC8D, offset: 0xEC8D, size: 0x8, addend: 0x0, symName: __ZNSt3__14pairIPNS_6vectorIxNS_9allocatorIxEEEES5_EC1B8ne180100IS5_S5_Li0EEEOT_OT0_, symObjAddr: 0x3530, symBinAddr: 0x100003F50, symSize: 0x3C }
  - { offsetInCU: 0xECEA, offset: 0xECEA, size: 0x8, addend: 0x0, symName: __ZNSt3__14pairIPNS_6vectorIxNS_9allocatorIxEEEES5_EC2B8ne180100IS5_S5_Li0EEEOT_OT0_, symObjAddr: 0x356C, symBinAddr: 0x100003F8C, symSize: 0x34 }
  - { offsetInCU: 0xED45, offset: 0xED45, size: 0x8, addend: 0x0, symName: __ZNSt3__129_AllocatorDestroyRangeReverseINS_9allocatorINS_6vectorIxNS1_IxEEEEEEPS4_EC1B8ne180100ERS5_RS6_S9_, symObjAddr: 0x35EC, symBinAddr: 0x10000400C, symSize: 0x44 }
  - { offsetInCU: 0xED9B, offset: 0xED9B, size: 0x8, addend: 0x0, symName: __ZNSt3__116allocator_traitsINS_9allocatorINS_6vectorIxNS1_IxEEEEEEE9constructB8ne180100IS4_JRS4_EvEEvRS5_PT_DpOT0_, symObjAddr: 0x3630, symBinAddr: 0x100004050, symSize: 0x34 }
  - { offsetInCU: 0xEDF1, offset: 0xEDF1, size: 0x8, addend: 0x0, symName: __ZNSt3__128__exception_guard_exceptionsINS_29_AllocatorDestroyRangeReverseINS_9allocatorINS_6vectorIxNS2_IxEEEEEEPS5_EEE10__completeB8ne180100Ev, symObjAddr: 0x3664, symBinAddr: 0x100004084, symSize: 0x1C }
  - { offsetInCU: 0xEE15, offset: 0xEE15, size: 0x8, addend: 0x0, symName: __ZNSt3__128__exception_guard_exceptionsINS_29_AllocatorDestroyRangeReverseINS_9allocatorINS_6vectorIxNS2_IxEEEEEEPS5_EEED1B8ne180100Ev, symObjAddr: 0x3680, symBinAddr: 0x1000040A0, symSize: 0x2C }
  - { offsetInCU: 0xEE3D, offset: 0xEE3D, size: 0x8, addend: 0x0, symName: __ZNSt3__128__exception_guard_exceptionsINS_29_AllocatorDestroyRangeReverseINS_9allocatorINS_6vectorIxNS2_IxEEEEEEPS5_EEEC1B8ne180100ES8_, symObjAddr: 0x36AC, symBinAddr: 0x1000040CC, symSize: 0x34 }
  - { offsetInCU: 0xEE75, offset: 0xEE75, size: 0x8, addend: 0x0, symName: __ZNSt3__128__exception_guard_exceptionsINS_29_AllocatorDestroyRangeReverseINS_9allocatorINS_6vectorIxNS2_IxEEEEEEPS5_EEEC2B8ne180100ES8_, symObjAddr: 0x36E0, symBinAddr: 0x100004100, symSize: 0x30 }
  - { offsetInCU: 0xEEAC, offset: 0xEEAC, size: 0x8, addend: 0x0, symName: __ZNSt3__129_AllocatorDestroyRangeReverseINS_9allocatorINS_6vectorIxNS1_IxEEEEEEPS4_EC2B8ne180100ERS5_RS6_S9_, symObjAddr: 0x3710, symBinAddr: 0x100004130, symSize: 0x38 }
  - { offsetInCU: 0xEF00, offset: 0xEF00, size: 0x8, addend: 0x0, symName: __ZNSt3__19allocatorINS_6vectorIxNS0_IxEEEEE9constructB8ne180100IS3_JRS3_EEEvPT_DpOT0_, symObjAddr: 0x3748, symBinAddr: 0x100004168, symSize: 0x30 }
  - { offsetInCU: 0xEF54, offset: 0xEF54, size: 0x8, addend: 0x0, symName: __ZNSt3__128__exception_guard_exceptionsINS_29_AllocatorDestroyRangeReverseINS_9allocatorINS_6vectorIxNS2_IxEEEEEEPS5_EEED2B8ne180100Ev, symObjAddr: 0x3778, symBinAddr: 0x100004198, symSize: 0x50 }
  - { offsetInCU: 0xEF7C, offset: 0xEF7C, size: 0x8, addend: 0x0, symName: __ZNKSt3__129_AllocatorDestroyRangeReverseINS_9allocatorINS_6vectorIxNS1_IxEEEEEEPS4_EclB8ne180100Ev, symObjAddr: 0x37C8, symBinAddr: 0x1000041E8, symSize: 0x68 }
  - { offsetInCU: 0xEFA0, offset: 0xEFA0, size: 0x8, addend: 0x0, symName: __ZNSt3__116reverse_iteratorIPNS_6vectorIxNS_9allocatorIxEEEEEC1B8ne180100ES5_, symObjAddr: 0x38A0, symBinAddr: 0x1000042C0, symSize: 0x34 }
  - { offsetInCU: 0xEFD6, offset: 0xEFD6, size: 0x8, addend: 0x0, symName: __ZNSt3__116reverse_iteratorIPNS_6vectorIxNS_9allocatorIxEEEEEppB8ne180100Ev, symObjAddr: 0x3940, symBinAddr: 0x100004360, symSize: 0x20 }
  - { offsetInCU: 0xEFFA, offset: 0xEFFA, size: 0x8, addend: 0x0, symName: __ZNKSt3__116reverse_iteratorIPNS_6vectorIxNS_9allocatorIxEEEEE4baseB8ne180100Ev, symObjAddr: 0x3960, symBinAddr: 0x100004380, symSize: 0x18 }
  - { offsetInCU: 0xF024, offset: 0xF024, size: 0x8, addend: 0x0, symName: __ZNSt3__119__to_address_helperINS_16reverse_iteratorIPNS_6vectorIxNS_9allocatorIxEEEEEEvE6__callB8ne180100ERKS7_, symObjAddr: 0x3978, symBinAddr: 0x100004398, symSize: 0x38 }
  - { offsetInCU: 0xF046, offset: 0xF046, size: 0x8, addend: 0x0, symName: __ZNKSt3__116reverse_iteratorIPNS_6vectorIxNS_9allocatorIxEEEEEptB8ne180100Ev, symObjAddr: 0x39B0, symBinAddr: 0x1000043D0, symSize: 0x24 }
  - { offsetInCU: 0xF06A, offset: 0xF06A, size: 0x8, addend: 0x0, symName: __ZNKSt3__116reverse_iteratorIPNS_6vectorIxNS_9allocatorIxEEEEEdeB8ne180100Ev, symObjAddr: 0x39D4, symBinAddr: 0x1000043F4, symSize: 0x28 }
  - { offsetInCU: 0xF09D, offset: 0xF09D, size: 0x8, addend: 0x0, symName: __ZNSt3__116reverse_iteratorIPNS_6vectorIxNS_9allocatorIxEEEEEC2B8ne180100ES5_, symObjAddr: 0x39FC, symBinAddr: 0x10000441C, symSize: 0x28 }
  - { offsetInCU: 0xF0D3, offset: 0xF0D3, size: 0x8, addend: 0x0, symName: __ZNSt3__118__unwrap_iter_implIPNS_6vectorIxNS_9allocatorIxEEEELb1EE8__unwrapB8ne180100ES5_, symObjAddr: 0x3A24, symBinAddr: 0x100004444, symSize: 0x24 }
  - { offsetInCU: 0xF0F6, offset: 0xF0F6, size: 0x8, addend: 0x0, symName: __ZNSt3__118__unwrap_iter_implIPNS_6vectorIxNS_9allocatorIxEEEELb1EE8__rewrapB8ne180100ES5_S5_, symObjAddr: 0x3A48, symBinAddr: 0x100004468, symSize: 0x58 }
  - { offsetInCU: 0xF130, offset: 0xF130, size: 0x8, addend: 0x0, symName: __ZNKSt3__111__copy_loopINS_17_ClassicAlgPolicyEEclB8ne180100IPNS_6vectorIxNS_9allocatorIxEEEES8_S8_EENS_4pairIT_T1_EESA_T0_SB_, symObjAddr: 0x3B98, symBinAddr: 0x1000045B8, symSize: 0x88 }
  - { offsetInCU: 0xF199, offset: 0xF199, size: 0x8, addend: 0x0, symName: __ZNSt3__16vectorIxNS_9allocatorIxEEEaSB8ne180100ERKS3_, symObjAddr: 0x3C4C, symBinAddr: 0x10000466C, symSize: 0x68 }
  - { offsetInCU: 0xF1CE, offset: 0xF1CE, size: 0x8, addend: 0x0, symName: __ZNSt3__16vectorIxNS_9allocatorIxEEE19__copy_assign_allocB8ne180100ERKS3_, symObjAddr: 0x3CB4, symBinAddr: 0x1000046D4, symSize: 0x2C }
  - { offsetInCU: 0xF201, offset: 0xF201, size: 0x8, addend: 0x0, symName: __ZNSt3__16vectorIxNS_9allocatorIxEEE6assignIPxLi0EEEvT_S6_, symObjAddr: 0x3CE0, symBinAddr: 0x100004700, symSize: 0x5C }
  - { offsetInCU: 0xF254, offset: 0xF254, size: 0x8, addend: 0x0, symName: __ZNSt3__16vectorIxNS_9allocatorIxEEE19__copy_assign_allocB8ne180100ERKS3_NS_17integral_constantIbLb0EEE, symObjAddr: 0x3D3C, symBinAddr: 0x10000475C, symSize: 0x14 }
  - { offsetInCU: 0xF28E, offset: 0xF28E, size: 0x8, addend: 0x0, symName: __ZNSt3__16vectorIxNS_9allocatorIxEEE18__assign_with_sizeB8ne180100IPxS5_EEvT_T0_l, symObjAddr: 0x3D50, symBinAddr: 0x100004770, symSize: 0x164 }
  - { offsetInCU: 0xF33C, offset: 0xF33C, size: 0x8, addend: 0x0, symName: __ZNSt3__16vectorIxNS_9allocatorIxEEE17__destruct_at_endB8ne180100EPx, symObjAddr: 0x3F14, symBinAddr: 0x100004934, symSize: 0x4C }
  - { offsetInCU: 0xF37E, offset: 0xF37E, size: 0x8, addend: 0x0, symName: __ZNSt3__16vectorIxNS_9allocatorIxEEE13__vdeallocateEv, symObjAddr: 0x3F60, symBinAddr: 0x100004980, symSize: 0x94 }
  - { offsetInCU: 0xF3A4, offset: 0xF3A4, size: 0x8, addend: 0x0, symName: __ZNKSt3__16vectorIxNS_9allocatorIxEEE11__recommendB8ne180100Em, symObjAddr: 0x3FF4, symBinAddr: 0x100004A14, symSize: 0xB4 }
  - { offsetInCU: 0xF3F7, offset: 0xF3F7, size: 0x8, addend: 0x0, symName: __ZNKSt3__16vectorIxNS_9allocatorIxEEE17__annotate_shrinkB8ne180100Em, symObjAddr: 0x4108, symBinAddr: 0x100004B28, symSize: 0x14 }
  - { offsetInCU: 0xF42A, offset: 0xF42A, size: 0x8, addend: 0x0, symName: __ZNSt3__16vectorIxNS_9allocatorIxEEE5clearB8ne180100Ev, symObjAddr: 0x411C, symBinAddr: 0x100004B3C, symSize: 0x44 }
  - { offsetInCU: 0xF45D, offset: 0xF45D, size: 0x8, addend: 0x0, symName: __ZNKSt3__16vectorINS0_IxNS_9allocatorIxEEEENS1_IS3_EEE17__annotate_shrinkB8ne180100Em, symObjAddr: 0x4208, symBinAddr: 0x100004C28, symSize: 0x14 }
  - { offsetInCU: 0xF490, offset: 0xF490, size: 0x8, addend: 0x0, symName: __ZNSt3__16vectorINS0_IxNS_9allocatorIxEEEENS1_IS3_EEE5clearB8ne180100Ev, symObjAddr: 0x421C, symBinAddr: 0x100004C3C, symSize: 0x44 }
  - { offsetInCU: 0xF4C3, offset: 0xF4C3, size: 0x8, addend: 0x0, symName: __ZNSt3__16vectorIxNS_9allocatorIxEEEC2B8ne180100ESt16initializer_listIxE, symObjAddr: 0x4288, symBinAddr: 0x100004CA8, symSize: 0x120 }
  - { offsetInCU: 0xF511, offset: 0xF511, size: 0x8, addend: 0x0, symName: __ZNKSt16initializer_listIxE4sizeB8ne180100Ev, symObjAddr: 0x43A8, symBinAddr: 0x100004DC8, symSize: 0x18 }
  - { offsetInCU: 0xF535, offset: 0xF535, size: 0x8, addend: 0x0, symName: __ZNSt3__16vectorIxNS_9allocatorIxEEE18__construct_at_endIPKxS6_EEvT_T0_m, symObjAddr: 0x43C0, symBinAddr: 0x100004DE0, symSize: 0x8C }
  - { offsetInCU: 0xF5A9, offset: 0xF5A9, size: 0x8, addend: 0x0, symName: __ZNKSt16initializer_listIxE5beginB8ne180100Ev, symObjAddr: 0x444C, symBinAddr: 0x100004E6C, symSize: 0x18 }
  - { offsetInCU: 0xF5CD, offset: 0xF5CD, size: 0x8, addend: 0x0, symName: __ZNKSt16initializer_listIxE3endB8ne180100Ev, symObjAddr: 0x4464, symBinAddr: 0x100004E84, symSize: 0x20 }
  - { offsetInCU: 0xF60F, offset: 0xF60F, size: 0x8, addend: 0x0, symName: __ZNSt3__14pairIPKxS2_EC1B8ne180100IS2_S2_Li0EEEOT_OT0_, symObjAddr: 0x45F8, symBinAddr: 0x100005018, symSize: 0x3C }
  - { offsetInCU: 0xF66C, offset: 0xF66C, size: 0x8, addend: 0x0, symName: __ZNSt3__14pairIPKxS2_EC2B8ne180100IS2_S2_Li0EEEOT_OT0_, symObjAddr: 0x4634, symBinAddr: 0x100005054, symSize: 0x34 }
  - { offsetInCU: 0xF6C8, offset: 0xF6C8, size: 0x8, addend: 0x0, symName: __ZNSt3__118__unwrap_iter_implIPKxLb1EE8__unwrapB8ne180100ES2_, symObjAddr: 0x4668, symBinAddr: 0x100005088, symSize: 0x24 }
  - { offsetInCU: 0xF703, offset: 0xF703, size: 0x8, addend: 0x0, symName: __ZNKSt3__114__copy_trivialclB8ne180100IKxxLi0EEENS_4pairIPT_PT0_EES5_S5_S7_, symObjAddr: 0x481C, symBinAddr: 0x10000523C, symSize: 0x48 }
  - { offsetInCU: 0xF76E, offset: 0xF76E, size: 0x8, addend: 0x0, symName: __ZNSt3__14pairIPKxPxEC1B8ne180100IRS2_S3_Li0EEEOT_OT0_, symObjAddr: 0x49E4, symBinAddr: 0x100005404, symSize: 0x3C }
  - { offsetInCU: 0xF7CB, offset: 0xF7CB, size: 0x8, addend: 0x0, symName: __ZNSt3__14pairIPKxPxEC2B8ne180100IRS2_S3_Li0EEEOT_OT0_, symObjAddr: 0x4A20, symBinAddr: 0x100005440, symSize: 0x34 }
  - { offsetInCU: 0xF826, offset: 0xF826, size: 0x8, addend: 0x0, symName: __ZNSt3__14pairIPKxPxEC1B8ne180100IS2_S3_Li0EEEOT_OT0_, symObjAddr: 0x4A54, symBinAddr: 0x100005474, symSize: 0x3C }
  - { offsetInCU: 0xF883, offset: 0xF883, size: 0x8, addend: 0x0, symName: __ZNSt3__14pairIPKxPxEC2B8ne180100IS2_S3_Li0EEEOT_OT0_, symObjAddr: 0x4A90, symBinAddr: 0x1000054B0, symSize: 0x34 }
  - { offsetInCU: 0xF8DF, offset: 0xF8DF, size: 0x8, addend: 0x0, symName: __ZNSt3__118__unwrap_iter_implIPKxLb1EE8__rewrapB8ne180100ES2_S2_, symObjAddr: 0x4B00, symBinAddr: 0x100005520, symSize: 0x50 }
  - { offsetInCU: 0xF90F, offset: 0xF90F, size: 0x8, addend: 0x0, symName: __ZNSt3__16vectorINS0_IxNS_9allocatorIxEEEENS1_IS3_EEEC2B8ne180100ESt16initializer_listIS3_E, symObjAddr: 0x4B50, symBinAddr: 0x100005570, symSize: 0x120 }
  - { offsetInCU: 0xF95D, offset: 0xF95D, size: 0x8, addend: 0x0, symName: __ZNKSt16initializer_listINSt3__16vectorIxNS0_9allocatorIxEEEEE4sizeB8ne180100Ev, symObjAddr: 0x4C70, symBinAddr: 0x100005690, symSize: 0x18 }
  - { offsetInCU: 0xF981, offset: 0xF981, size: 0x8, addend: 0x0, symName: __ZNSt3__16vectorINS0_IxNS_9allocatorIxEEEENS1_IS3_EEE18__construct_at_endIPKS3_S8_EEvT_T0_m, symObjAddr: 0x4C88, symBinAddr: 0x1000056A8, symSize: 0x8C }
  - { offsetInCU: 0xF9F5, offset: 0xF9F5, size: 0x8, addend: 0x0, symName: __ZNKSt16initializer_listINSt3__16vectorIxNS0_9allocatorIxEEEEE5beginB8ne180100Ev, symObjAddr: 0x4D14, symBinAddr: 0x100005734, symSize: 0x18 }
  - { offsetInCU: 0xFA19, offset: 0xFA19, size: 0x8, addend: 0x0, symName: __ZNKSt16initializer_listINSt3__16vectorIxNS0_9allocatorIxEEEEE3endB8ne180100Ev, symObjAddr: 0x4D2C, symBinAddr: 0x10000574C, symSize: 0x28 }
  - { offsetInCU: 0xFA5B, offset: 0xFA5B, size: 0x8, addend: 0x0, symName: __ZNSt3__14pairIPKNS_6vectorIxNS_9allocatorIxEEEES6_EC1B8ne180100IS6_S6_Li0EEEOT_OT0_, symObjAddr: 0x4F84, symBinAddr: 0x1000059A4, symSize: 0x3C }
  - { offsetInCU: 0xFAB8, offset: 0xFAB8, size: 0x8, addend: 0x0, symName: __ZNSt3__14pairIPKNS_6vectorIxNS_9allocatorIxEEEES6_EC2B8ne180100IS6_S6_Li0EEEOT_OT0_, symObjAddr: 0x4FC0, symBinAddr: 0x1000059E0, symSize: 0x34 }
  - { offsetInCU: 0xFB14, offset: 0xFB14, size: 0x8, addend: 0x0, symName: __ZNSt3__118__unwrap_iter_implIPKNS_6vectorIxNS_9allocatorIxEEEELb1EE8__unwrapB8ne180100ES6_, symObjAddr: 0x4FF4, symBinAddr: 0x100005A14, symSize: 0x24 }
  - { offsetInCU: 0xFB36, offset: 0xFB36, size: 0x8, addend: 0x0, symName: __ZNSt3__16vectorIiNS_9allocatorIiEEEC2B8ne180100ESt16initializer_listIiE, symObjAddr: 0x502C, symBinAddr: 0x100005A4C, symSize: 0x120 }
  - { offsetInCU: 0xFB84, offset: 0xFB84, size: 0x8, addend: 0x0, symName: __ZNSt3__117__compressed_pairIPiNS_9allocatorIiEEEC1B8ne180100IDnNS_18__default_init_tagEEEOT_OT0_, symObjAddr: 0x514C, symBinAddr: 0x100005B6C, symSize: 0x3C }
  - { offsetInCU: 0xFBDA, offset: 0xFBDA, size: 0x8, addend: 0x0, symName: __ZNSt3__16vectorIiNS_9allocatorIiEEE16__destroy_vectorC1B8ne180100ERS3_, symObjAddr: 0x51C8, symBinAddr: 0x100005BE8, symSize: 0x34 }
  - { offsetInCU: 0xFC11, offset: 0xFC11, size: 0x8, addend: 0x0, symName: __ZNKSt16initializer_listIiE4sizeB8ne180100Ev, symObjAddr: 0x51FC, symBinAddr: 0x100005C1C, symSize: 0x18 }
  - { offsetInCU: 0xFC35, offset: 0xFC35, size: 0x8, addend: 0x0, symName: __ZNSt3__16vectorIiNS_9allocatorIiEEE11__vallocateB8ne180100Em, symObjAddr: 0x5214, symBinAddr: 0x100005C34, symSize: 0xAC }
  - { offsetInCU: 0xFC77, offset: 0xFC77, size: 0x8, addend: 0x0, symName: __ZNSt3__16vectorIiNS_9allocatorIiEEE18__construct_at_endIPKiS6_EEvT_T0_m, symObjAddr: 0x52C0, symBinAddr: 0x100005CE0, symSize: 0x8C }
  - { offsetInCU: 0xFCEB, offset: 0xFCEB, size: 0x8, addend: 0x0, symName: __ZNKSt16initializer_listIiE5beginB8ne180100Ev, symObjAddr: 0x534C, symBinAddr: 0x100005D6C, symSize: 0x18 }
  - { offsetInCU: 0xFD0F, offset: 0xFD0F, size: 0x8, addend: 0x0, symName: __ZNKSt16initializer_listIiE3endB8ne180100Ev, symObjAddr: 0x5364, symBinAddr: 0x100005D84, symSize: 0x20 }
  - { offsetInCU: 0xFD33, offset: 0xFD33, size: 0x8, addend: 0x0, symName: __ZNSt3__128__exception_guard_exceptionsINS_6vectorIiNS_9allocatorIiEEE16__destroy_vectorEE10__completeB8ne180100Ev, symObjAddr: 0x5384, symBinAddr: 0x100005DA4, symSize: 0x1C }
  - { offsetInCU: 0xFD57, offset: 0xFD57, size: 0x8, addend: 0x0, symName: __ZNSt3__128__exception_guard_exceptionsINS_6vectorIiNS_9allocatorIiEEE16__destroy_vectorEED1B8ne180100Ev, symObjAddr: 0x53A0, symBinAddr: 0x100005DC0, symSize: 0x2C }
  - { offsetInCU: 0xFD7F, offset: 0xFD7F, size: 0x8, addend: 0x0, symName: __ZNSt3__117__compressed_pairIPiNS_9allocatorIiEEEC2B8ne180100IDnNS_18__default_init_tagEEEOT_OT0_, symObjAddr: 0x53CC, symBinAddr: 0x100005DEC, symSize: 0x40 }
  - { offsetInCU: 0xFDD6, offset: 0xFDD6, size: 0x8, addend: 0x0, symName: __ZNSt3__122__compressed_pair_elemIPiLi0ELb0EEC2B8ne180100IDnvEEOT_, symObjAddr: 0x540C, symBinAddr: 0x100005E2C, symSize: 0x1C }
  - { offsetInCU: 0xFE15, offset: 0xFE15, size: 0x8, addend: 0x0, symName: __ZNSt3__122__compressed_pair_elemINS_9allocatorIiEELi1ELb1EEC2B8ne180100ENS_18__default_init_tagE, symObjAddr: 0x5428, symBinAddr: 0x100005E48, symSize: 0x2C }
  - { offsetInCU: 0xFE47, offset: 0xFE47, size: 0x8, addend: 0x0, symName: __ZNSt3__19allocatorIiEC2B8ne180100Ev, symObjAddr: 0x5454, symBinAddr: 0x100005E74, symSize: 0x2C }
  - { offsetInCU: 0xFE70, offset: 0xFE70, size: 0x8, addend: 0x0, symName: __ZNSt3__116__non_trivial_ifILb1ENS_9allocatorIiEEEC2B8ne180100Ev, symObjAddr: 0x5480, symBinAddr: 0x100005EA0, symSize: 0x14 }
  - { offsetInCU: 0xFE97, offset: 0xFE97, size: 0x8, addend: 0x0, symName: __ZNSt3__128__exception_guard_exceptionsINS_6vectorIiNS_9allocatorIiEEE16__destroy_vectorEEC1B8ne180100ES5_, symObjAddr: 0x5494, symBinAddr: 0x100005EB4, symSize: 0x34 }
  - { offsetInCU: 0xFECE, offset: 0xFECE, size: 0x8, addend: 0x0, symName: __ZNSt3__128__exception_guard_exceptionsINS_6vectorIiNS_9allocatorIiEEE16__destroy_vectorEEC2B8ne180100ES5_, symObjAddr: 0x54C8, symBinAddr: 0x100005EE8, symSize: 0x24 }
  - { offsetInCU: 0xFF04, offset: 0xFF04, size: 0x8, addend: 0x0, symName: __ZNSt3__16vectorIiNS_9allocatorIiEEE16__destroy_vectorC2B8ne180100ERS3_, symObjAddr: 0x54EC, symBinAddr: 0x100005F0C, symSize: 0x20 }
  - { offsetInCU: 0xFF3A, offset: 0xFF3A, size: 0x8, addend: 0x0, symName: __ZNKSt3__16vectorIiNS_9allocatorIiEEE8max_sizeEv, symObjAddr: 0x550C, symBinAddr: 0x100005F2C, symSize: 0x60 }
  - { offsetInCU: 0xFF60, offset: 0xFF60, size: 0x8, addend: 0x0, symName: __ZNKSt3__16vectorIiNS_9allocatorIiEEE20__throw_length_errorB8ne180100Ev, symObjAddr: 0x556C, symBinAddr: 0x100005F8C, symSize: 0x1C }
  - { offsetInCU: 0xFF84, offset: 0xFF84, size: 0x8, addend: 0x0, symName: __ZNSt3__16vectorIiNS_9allocatorIiEEE7__allocB8ne180100Ev, symObjAddr: 0x55C8, symBinAddr: 0x100005FE8, symSize: 0x28 }
  - { offsetInCU: 0xFFA8, offset: 0xFFA8, size: 0x8, addend: 0x0, symName: __ZNSt3__16vectorIiNS_9allocatorIiEEE9__end_capB8ne180100Ev, symObjAddr: 0x55F0, symBinAddr: 0x100006010, symSize: 0x28 }
  - { offsetInCU: 0xFFCC, offset: 0xFFCC, size: 0x8, addend: 0x0, symName: __ZNKSt3__16vectorIiNS_9allocatorIiEEE14__annotate_newB8ne180100Em, symObjAddr: 0x5618, symBinAddr: 0x100006038, symSize: 0x14 }
  - { offsetInCU: 0x1000A, offset: 0x1000A, size: 0x8, addend: 0x0, symName: __ZNSt3__116allocator_traitsINS_9allocatorIiEEE8max_sizeB8ne180100IS2_vEEmRKS2_, symObjAddr: 0x562C, symBinAddr: 0x10000604C, symSize: 0x24 }
  - { offsetInCU: 0x10037, offset: 0x10037, size: 0x8, addend: 0x0, symName: __ZNKSt3__16vectorIiNS_9allocatorIiEEE7__allocB8ne180100Ev, symObjAddr: 0x5650, symBinAddr: 0x100006070, symSize: 0x28 }
  - { offsetInCU: 0x1005B, offset: 0x1005B, size: 0x8, addend: 0x0, symName: __ZNKSt3__19allocatorIiE8max_sizeB8ne180100Ev, symObjAddr: 0x5678, symBinAddr: 0x100006098, symSize: 0x14 }
  - { offsetInCU: 0x1007F, offset: 0x1007F, size: 0x8, addend: 0x0, symName: __ZNKSt3__117__compressed_pairIPiNS_9allocatorIiEEE6secondB8ne180100Ev, symObjAddr: 0x568C, symBinAddr: 0x1000060AC, symSize: 0x24 }
  - { offsetInCU: 0x100A3, offset: 0x100A3, size: 0x8, addend: 0x0, symName: __ZNKSt3__122__compressed_pair_elemINS_9allocatorIiEELi1ELb1EE5__getB8ne180100Ev, symObjAddr: 0x56B0, symBinAddr: 0x1000060D0, symSize: 0x14 }
  - { offsetInCU: 0x100C7, offset: 0x100C7, size: 0x8, addend: 0x0, symName: __ZNSt3__19allocatorIiE8allocateB8ne180100Em, symObjAddr: 0x56C4, symBinAddr: 0x1000060E4, symSize: 0x58 }
  - { offsetInCU: 0x100F9, offset: 0x100F9, size: 0x8, addend: 0x0, symName: __ZNSt3__117__compressed_pairIPiNS_9allocatorIiEEE6secondB8ne180100Ev, symObjAddr: 0x571C, symBinAddr: 0x10000613C, symSize: 0x24 }
  - { offsetInCU: 0x1011D, offset: 0x1011D, size: 0x8, addend: 0x0, symName: __ZNSt3__122__compressed_pair_elemINS_9allocatorIiEELi1ELb1EE5__getB8ne180100Ev, symObjAddr: 0x5740, symBinAddr: 0x100006160, symSize: 0x14 }
  - { offsetInCU: 0x10141, offset: 0x10141, size: 0x8, addend: 0x0, symName: __ZNSt3__117__compressed_pairIPiNS_9allocatorIiEEE5firstB8ne180100Ev, symObjAddr: 0x5754, symBinAddr: 0x100006174, symSize: 0x24 }
  - { offsetInCU: 0x10165, offset: 0x10165, size: 0x8, addend: 0x0, symName: __ZNSt3__122__compressed_pair_elemIPiLi0ELb0EE5__getB8ne180100Ev, symObjAddr: 0x5778, symBinAddr: 0x100006198, symSize: 0x14 }
  - { offsetInCU: 0x101A2, offset: 0x101A2, size: 0x8, addend: 0x0, symName: __ZNSt3__16vectorIiNS_9allocatorIiEEE21_ConstructTransactionC1B8ne180100ERS3_m, symObjAddr: 0x578C, symBinAddr: 0x1000061AC, symSize: 0x3C }
  - { offsetInCU: 0x101E8, offset: 0x101E8, size: 0x8, addend: 0x0, symName: __ZNSt3__16vectorIiNS_9allocatorIiEEE21_ConstructTransactionD1B8ne180100Ev, symObjAddr: 0x5848, symBinAddr: 0x100006268, symSize: 0x2C }
  - { offsetInCU: 0x10211, offset: 0x10211, size: 0x8, addend: 0x0, symName: __ZNSt3__16vectorIiNS_9allocatorIiEEE21_ConstructTransactionC2B8ne180100ERS3_m, symObjAddr: 0x5874, symBinAddr: 0x100006294, symSize: 0x44 }
  - { offsetInCU: 0x10274, offset: 0x10274, size: 0x8, addend: 0x0, symName: __ZNSt3__14pairIPKiS2_EC1B8ne180100IS2_S2_Li0EEEOT_OT0_, symObjAddr: 0x5A0C, symBinAddr: 0x10000642C, symSize: 0x3C }
  - { offsetInCU: 0x102D1, offset: 0x102D1, size: 0x8, addend: 0x0, symName: __ZNSt3__14pairIPKiS2_EC2B8ne180100IS2_S2_Li0EEEOT_OT0_, symObjAddr: 0x5A48, symBinAddr: 0x100006468, symSize: 0x34 }
  - { offsetInCU: 0x1032D, offset: 0x1032D, size: 0x8, addend: 0x0, symName: __ZNSt3__118__unwrap_iter_implIPKiLb1EE8__unwrapB8ne180100ES2_, symObjAddr: 0x5A7C, symBinAddr: 0x10000649C, symSize: 0x24 }
  - { offsetInCU: 0x10368, offset: 0x10368, size: 0x8, addend: 0x0, symName: __ZNKSt3__114__copy_trivialclB8ne180100IKiiLi0EEENS_4pairIPT_PT0_EES5_S5_S7_, symObjAddr: 0x5C30, symBinAddr: 0x100006650, symSize: 0x48 }
  - { offsetInCU: 0x103D8, offset: 0x103D8, size: 0x8, addend: 0x0, symName: __ZNSt3__14pairIPKiPiEC1B8ne180100IRS2_S3_Li0EEEOT_OT0_, symObjAddr: 0x5DF8, symBinAddr: 0x100006818, symSize: 0x3C }
  - { offsetInCU: 0x10435, offset: 0x10435, size: 0x8, addend: 0x0, symName: __ZNSt3__14pairIPKiPiEC2B8ne180100IRS2_S3_Li0EEEOT_OT0_, symObjAddr: 0x5E34, symBinAddr: 0x100006854, symSize: 0x34 }
  - { offsetInCU: 0x10490, offset: 0x10490, size: 0x8, addend: 0x0, symName: __ZNSt3__14pairIPKiPiEC1B8ne180100IS2_S3_Li0EEEOT_OT0_, symObjAddr: 0x5E68, symBinAddr: 0x100006888, symSize: 0x3C }
  - { offsetInCU: 0x104ED, offset: 0x104ED, size: 0x8, addend: 0x0, symName: __ZNSt3__14pairIPKiPiEC2B8ne180100IS2_S3_Li0EEEOT_OT0_, symObjAddr: 0x5EA4, symBinAddr: 0x1000068C4, symSize: 0x34 }
  - { offsetInCU: 0x10549, offset: 0x10549, size: 0x8, addend: 0x0, symName: __ZNSt3__118__unwrap_iter_implIPKiLb1EE8__rewrapB8ne180100ES2_S2_, symObjAddr: 0x5F14, symBinAddr: 0x100006934, symSize: 0x50 }
  - { offsetInCU: 0x1057A, offset: 0x1057A, size: 0x8, addend: 0x0, symName: __ZNSt3__118__unwrap_iter_implIPiLb1EE8__unwrapB8ne180100ES1_, symObjAddr: 0x5F64, symBinAddr: 0x100006984, symSize: 0x24 }
  - { offsetInCU: 0x1059D, offset: 0x1059D, size: 0x8, addend: 0x0, symName: __ZNSt3__118__unwrap_iter_implIPiLb1EE8__rewrapB8ne180100ES1_S1_, symObjAddr: 0x5F9C, symBinAddr: 0x1000069BC, symSize: 0x50 }
  - { offsetInCU: 0x105CE, offset: 0x105CE, size: 0x8, addend: 0x0, symName: __ZNSt3__16vectorIiNS_9allocatorIiEEE21_ConstructTransactionD2B8ne180100Ev, symObjAddr: 0x5FEC, symBinAddr: 0x100006A0C, symSize: 0x20 }
  - { offsetInCU: 0x105F5, offset: 0x105F5, size: 0x8, addend: 0x0, symName: __ZNSt3__128__exception_guard_exceptionsINS_6vectorIiNS_9allocatorIiEEE16__destroy_vectorEED2B8ne180100Ev, symObjAddr: 0x600C, symBinAddr: 0x100006A2C, symSize: 0x50 }
  - { offsetInCU: 0x1061D, offset: 0x1061D, size: 0x8, addend: 0x0, symName: __ZNSt3__16vectorIiNS_9allocatorIiEEE16__destroy_vectorclB8ne180100Ev, symObjAddr: 0x605C, symBinAddr: 0x100006A7C, symSize: 0x90 }
  - { offsetInCU: 0x10641, offset: 0x10641, size: 0x8, addend: 0x0, symName: __ZNSt3__16vectorIiNS_9allocatorIiEEE7__clearB8ne180100Ev, symObjAddr: 0x60EC, symBinAddr: 0x100006B0C, symSize: 0x28 }
  - { offsetInCU: 0x10665, offset: 0x10665, size: 0x8, addend: 0x0, symName: __ZNKSt3__16vectorIiNS_9allocatorIiEEE17__annotate_deleteB8ne180100Ev, symObjAddr: 0x6114, symBinAddr: 0x100006B34, symSize: 0x10 }
  - { offsetInCU: 0x1068A, offset: 0x1068A, size: 0x8, addend: 0x0, symName: __ZNSt3__116allocator_traitsINS_9allocatorIiEEE10deallocateB8ne180100ERS2_Pim, symObjAddr: 0x6124, symBinAddr: 0x100006B44, symSize: 0x34 }
  - { offsetInCU: 0x106CB, offset: 0x106CB, size: 0x8, addend: 0x0, symName: __ZNKSt3__16vectorIiNS_9allocatorIiEEE8capacityB8ne180100Ev, symObjAddr: 0x6158, symBinAddr: 0x100006B78, symSize: 0x40 }
  - { offsetInCU: 0x106EF, offset: 0x106EF, size: 0x8, addend: 0x0, symName: __ZNSt3__16vectorIiNS_9allocatorIiEEE22__base_destruct_at_endB8ne180100EPi, symObjAddr: 0x6198, symBinAddr: 0x100006BB8, symSize: 0x8C }
  - { offsetInCU: 0x10732, offset: 0x10732, size: 0x8, addend: 0x0, symName: __ZNSt3__116allocator_traitsINS_9allocatorIiEEE7destroyB8ne180100IivEEvRS2_PT_, symObjAddr: 0x6224, symBinAddr: 0x100006C44, symSize: 0x2C }
  - { offsetInCU: 0x1076E, offset: 0x1076E, size: 0x8, addend: 0x0, symName: __ZNSt3__19allocatorIiE7destroyB8ne180100EPi, symObjAddr: 0x6250, symBinAddr: 0x100006C70, symSize: 0x14 }
  - { offsetInCU: 0x107A0, offset: 0x107A0, size: 0x8, addend: 0x0, symName: __ZNSt3__19allocatorIiE10deallocateB8ne180100EPim, symObjAddr: 0x6264, symBinAddr: 0x100006C84, symSize: 0x40 }
  - { offsetInCU: 0x107E0, offset: 0x107E0, size: 0x8, addend: 0x0, symName: __ZNKSt3__16vectorIiNS_9allocatorIiEEE9__end_capB8ne180100Ev, symObjAddr: 0x62A4, symBinAddr: 0x100006CC4, symSize: 0x28 }
  - { offsetInCU: 0x10804, offset: 0x10804, size: 0x8, addend: 0x0, symName: __ZNKSt3__117__compressed_pairIPiNS_9allocatorIiEEE5firstB8ne180100Ev, symObjAddr: 0x62CC, symBinAddr: 0x100006CEC, symSize: 0x24 }
  - { offsetInCU: 0x10828, offset: 0x10828, size: 0x8, addend: 0x0, symName: __ZNKSt3__122__compressed_pair_elemIPiLi0ELb0EE5__getB8ne180100Ev, symObjAddr: 0x62F0, symBinAddr: 0x100006D10, symSize: 0x14 }
  - { offsetInCU: 0x1084C, offset: 0x1084C, size: 0x8, addend: 0x0, symName: __ZNSt3__16vectorIiNS_9allocatorIiEEED2B8ne180100Ev, symObjAddr: 0x6304, symBinAddr: 0x100006D24, symSize: 0x40 }
  - { offsetInCU: 0x10874, offset: 0x10874, size: 0x8, addend: 0x0, symName: __ZNSt3__16vectorIiNS_9allocatorIiEEEC2ERKS3_, symObjAddr: 0x6344, symBinAddr: 0x100006D64, symSize: 0x94 }
  - { offsetInCU: 0x108AE, offset: 0x108AE, size: 0x8, addend: 0x0, symName: __ZNSt3__116allocator_traitsINS_9allocatorIiEEE37select_on_container_copy_constructionB8ne180100IS2_vvEES2_RKS2_, symObjAddr: 0x63D8, symBinAddr: 0x100006DF8, symSize: 0x10 }
  - { offsetInCU: 0x108E1, offset: 0x108E1, size: 0x8, addend: 0x0, symName: __ZNSt3__117__compressed_pairIPiNS_9allocatorIiEEEC1B8ne180100IDnS3_EEOT_OT0_, symObjAddr: 0x63E8, symBinAddr: 0x100006E08, symSize: 0x3C }
  - { offsetInCU: 0x10937, offset: 0x10937, size: 0x8, addend: 0x0, symName: __ZNSt3__16vectorIiNS_9allocatorIiEEE16__init_with_sizeB8ne180100IPiS5_EEvT_T0_m, symObjAddr: 0x6424, symBinAddr: 0x100006E44, symSize: 0xB8 }
  - { offsetInCU: 0x109A9, offset: 0x109A9, size: 0x8, addend: 0x0, symName: __ZNSt3__117__compressed_pairIPiNS_9allocatorIiEEEC2B8ne180100IDnS3_EEOT_OT0_, symObjAddr: 0x64DC, symBinAddr: 0x100006EFC, symSize: 0x44 }
  - { offsetInCU: 0x10A00, offset: 0x10A00, size: 0x8, addend: 0x0, symName: __ZNSt3__122__compressed_pair_elemINS_9allocatorIiEELi1ELb1EEC2B8ne180100IS2_vEEOT_, symObjAddr: 0x6520, symBinAddr: 0x100006F40, symSize: 0x18 }
  - { offsetInCU: 0x10A3F, offset: 0x10A3F, size: 0x8, addend: 0x0, symName: __ZNSt3__16vectorIiNS_9allocatorIiEEE18__construct_at_endIPiS5_EEvT_T0_m, symObjAddr: 0x6538, symBinAddr: 0x100006F58, symSize: 0x8C }
  - { offsetInCU: 0x10ACC, offset: 0x10ACC, size: 0x8, addend: 0x0, symName: __ZNSt3__14pairIPiS1_EC1B8ne180100IS1_S1_Li0EEEOT_OT0_, symObjAddr: 0x6714, symBinAddr: 0x100007134, symSize: 0x3C }
  - { offsetInCU: 0x10B29, offset: 0x10B29, size: 0x8, addend: 0x0, symName: __ZNSt3__14pairIPiS1_EC2B8ne180100IS1_S1_Li0EEEOT_OT0_, symObjAddr: 0x6750, symBinAddr: 0x100007170, symSize: 0x34 }
  - { offsetInCU: 0x10B84, offset: 0x10B84, size: 0x8, addend: 0x0, symName: __ZNKSt3__114__copy_trivialclB8ne180100IiiLi0EEENS_4pairIPT_PT0_EES4_S4_S6_, symObjAddr: 0x6900, symBinAddr: 0x100007320, symSize: 0x48 }
  - { offsetInCU: 0x10BEA, offset: 0x10BEA, size: 0x8, addend: 0x0, symName: __ZNSt3__14pairIPiS1_EC1B8ne180100IRS1_S1_Li0EEEOT_OT0_, symObjAddr: 0x6A90, symBinAddr: 0x1000074B0, symSize: 0x3C }
  - { offsetInCU: 0x10C47, offset: 0x10C47, size: 0x8, addend: 0x0, symName: __ZNSt3__14pairIPiS1_EC2B8ne180100IRS1_S1_Li0EEEOT_OT0_, symObjAddr: 0x6ACC, symBinAddr: 0x1000074EC, symSize: 0x34 }
...
